(lp0
(dp1
S'name'
p2
I4
sS'lab'
p3
cnumpy.core.multiarray
_reconstruct
p4
(cnumpy
ndarray
p5
(I0
tp6
S'b'
p7
tp8
Rp9
(I1
(I3
tp10
cnumpy
dtype
p11
(S'u1'
p12
I0
I1
tp13
Rp14
(I3
S'|'
p15
NNNI-1
I-1
I0
tp16
bI00
S'm\xa2\x99'
p17
tp18
bsa(dp19
g2
I12
sg3
g4
(g5
(I0
tp20
g7
tp21
Rp22
(I1
(I3
tp23
g14
I00
S'\xbcP\x86'
p24
tp25
bsa(dp26
g2
I6
sg3
g4
(g5
(I0
tp27
g7
tp28
Rp29
(I1
(I3
tp30
g14
I00
S'j\x91T'
p31
tp32
bsa(dp33
g2
I12
sg3
g4
(g5
(I0
tp34
g7
tp35
Rp36
(I1
(I3
tp37
g14
I00
S'\x8ec}'
p38
tp39
bsa(dp40
S'name'
p41
I3
sS'lab'
p42
g4
(g5
(I0
tp43
g7
tp44
Rp45
(I1
(I3
tp46
g11
(S'u1'
p47
I0
I1
tp48
Rp49
(I3
S'|'
p50
NNNI-1
I-1
I0
tp51
bI00
S'T\xad\x9a'
p52
tp53
bsa(dp54
S'name'
p55
I8
sS'lab'
p56
g4
(g5
(I0
tp57
g7
tp58
Rp59
(I1
(I3
tp60
g11
(S'u1'
p61
I0
I1
tp62
Rp63
(I3
S'|'
p64
NNNI-1
I-1
I0
tp65
bI00
S'A\xb6A'
p66
tp67
bsa(dp68
S'name'
p69
I7
sS'lab'
p70
g4
(g5
(I0
tp71
g7
tp72
Rp73
(I1
(I3
tp74
g11
(S'u1'
p75
I0
I1
tp76
Rp77
(I3
S'|'
p78
NNNI-1
I-1
I0
tp79
bI00
S'\xc2o\x93'
p80
tp81
bsa(dp82
S'name'
p83
I12
sS'lab'
p84
g4
(g5
(I0
tp85
g7
tp86
Rp87
(I1
(I3
tp88
g11
(S'u1'
p89
I0
I1
tp90
Rp91
(I3
S'|'
p92
NNNI-1
I-1
I0
tp93
bI00
S'|i|'
p94
tp95
bsa(dp96
S'name'
p97
I6
sS'lab'
p98
g4
(g5
(I0
tp99
g7
tp100
Rp101
(I1
(I3
tp102
g11
(S'u1'
p103
I0
I1
tp104
Rp105
(I3
S'|'
p106
NNNI-1
I-1
I0
tp107
bI00
S'\xb3zV'
p108
tp109
bsa(dp110
S'name'
p111
I8
sS'lab'
p112
g4
(g5
(I0
tp113
g7
tp114
Rp115
(I1
(I3
tp116
g11
(S'u1'
p117
I0
I1
tp118
Rp119
(I3
S'|'
p120
NNNI-1
I-1
I0
tp121
bI00
S'P\xc2;'
p122
tp123
bsa(dp124
S'name'
p125
I9
sS'lab'
p126
g4
(g5
(I0
tp127
g7
tp128
Rp129
(I1
(I3
tp130
g11
(S'u1'
p131
I0
I1
tp132
Rp133
(I3
S'|'
p134
NNNI-1
I-1
I0
tp135
bI00
S'\x83\xd67'
p136
tp137
bsa(dp138
S'name'
p139
I9
sS'lab'
p140
g4
(g5
(I0
tp141
g7
tp142
Rp143
(I1
(I3
tp144
g11
(S'u1'
p145
I0
I1
tp146
Rp147
(I3
S'|'
p148
NNNI-1
I-1
I0
tp149
bI00
S'c\xc3i'
p150
tp151
bsa(dp152
S'name'
p153
I1
sS'lab'
p154
g4
(g5
(I0
tp155
g7
tp156
Rp157
(I1
(I3
tp158
g11
(S'u1'
p159
I0
I1
tp160
Rp161
(I3
S'|'
p162
NNNI-1
I-1
I0
tp163
bI00
S'\xff\x80\x80'
p164
tp165
bsa(dp166
g153
I1
sg154
g4
(g5
(I0
tp167
g7
tp168
Rp169
(I1
(I3
tp170
g161
I00
S'\xf9\x80\x80'
p171
tp172
bsa(dp173
g153
I1
sg154
g4
(g5
(I0
tp174
g7
tp175
Rp176
(I1
(I3
tp177
g161
I00
S'\xfe\x81\x7f'
p178
tp179
bsa(dp180
g153
I1
sg154
g4
(g5
(I0
tp181
g7
tp182
Rp183
(I1
(I3
tp184
g161
I00
S'\xf9\x81~'
p185
tp186
bsa(dp187
g153
I1
sg154
g4
(g5
(I0
tp188
g7
tp189
Rp190
(I1
(I3
tp191
g161
I00
S'\xfa\x81~'
p192
tp193
bsa(dp194
S'name'
p195
I2
sS'lab'
p196
g4
(g5
(I0
tp197
g7
tp198
Rp199
(I1
(I3
tp200
g11
(S'u1'
p201
I0
I1
tp202
Rp203
(I3
S'|'
p204
NNNI-1
I-1
I0
tp205
bI00
S'\x01\x82}'
p206
tp207
bsa(dp208
g195
I2
sg196
g4
(g5
(I0
tp209
g7
tp210
Rp211
(I1
(I3
tp212
g203
I00
S'\x02\x82{'
p213
tp214
bsa(dp215
g195
I2
sg196
g4
(g5
(I0
tp216
g7
tp217
Rp218
(I1
(I3
tp219
g203
I00
S'\x02\x80\x80'
p220
tp221
bsa(dp222
g195
I2
sg196
g4
(g5
(I0
tp223
g7
tp224
Rp225
(I1
(I3
tp226
g203
I00
S'\x02\x80\x80'
p227
tp228
bsa(dp229
g195
I2
sg196
g4
(g5
(I0
tp230
g7
tp231
Rp232
(I1
(I3
tp233
g203
I00
S'\x03\x80\x82'
p234
tp235
bsa(dp236
S'name'
p237
I3
sS'lab'
p238
g4
(g5
(I0
tp239
g7
tp240
Rp241
(I1
(I3
tp242
g11
(S'u1'
p243
I0
I1
tp244
Rp245
(I3
S'|'
p246
NNNI-1
I-1
I0
tp247
bI00
S'c\xb9\xa8'
p248
tp249
bsa(dp250
g237
I3
sg238
g4
(g5
(I0
tp251
g7
tp252
Rp253
(I1
(I3
tp254
g245
I00
S'v\xc7\xb9'
p255
tp256
bsa(dp257
g237
I3
sg238
g4
(g5
(I0
tp258
g7
tp259
Rp260
(I1
(I3
tp261
g245
I00
S'\x81\xba\xb3'
p262
tp263
bsa(dp264
g237
I3
sg238
g4
(g5
(I0
tp265
g7
tp266
Rp267
(I1
(I3
tp268
g245
I00
S'o\xc3\xb5'
p269
tp270
bsa(dp271
g237
I3
sg238
g4
(g5
(I0
tp272
g7
tp273
Rp274
(I1
(I3
tp275
g245
I00
S'D\xb0\xa6'
p276
tp277
bsa(dp278
S'name'
p279
I4
sS'lab'
p280
g4
(g5
(I0
tp281
g7
tp282
Rp283
(I1
(I3
tp284
g11
(S'u1'
p285
I0
I1
tp286
Rp287
(I3
S'|'
p288
NNNI-1
I-1
I0
tp289
bI00
S'\xb8\x9f\xcb'
p290
tp291
bsa(dp292
g279
I4
sg280
g4
(g5
(I0
tp293
g7
tp294
Rp295
(I1
(I3
tp296
g287
I00
S'\x9f\x9b\xc3'
p297
tp298
bsa(dp299
g279
I4
sg280
g4
(g5
(I0
tp300
g7
tp301
Rp302
(I1
(I3
tp303
g287
I00
S'\xad\xa1\xca'
p304
tp305
bsa(dp306
g279
I4
sg280
g4
(g5
(I0
tp307
g7
tp308
Rp309
(I1
(I3
tp310
g287
I00
S'\x95\x9b\xc0'
p311
tp312
bsa(dp313
g279
I4
sg280
g4
(g5
(I0
tp314
g7
tp315
Rp316
(I1
(I3
tp317
g287
I00
S'\xbf\x94\xbd'
p318
tp319
bsa(dp320
S'name'
p321
I5
sS'lab'
p322
g4
(g5
(I0
tp323
g7
tp324
Rp325
(I1
(I3
tp326
g11
(S'u1'
p327
I0
I1
tp328
Rp329
(I3
S'|'
p330
NNNI-1
I-1
I0
tp331
bI00
S'\xebl\xd4'
p332
tp333
bsa(dp334
g321
I5
sg322
g4
(g5
(I0
tp335
g7
tp336
Rp337
(I1
(I3
tp338
g329
I00
S'\xf3`\xdc'
p339
tp340
bsa(dp341
g321
I5
sg322
g4
(g5
(I0
tp342
g7
tp343
Rp344
(I1
(I3
tp345
g329
I00
S'\xad\xa1\xca'
p346
tp347
bsa(dp348
g321
I5
sg322
g4
(g5
(I0
tp349
g7
tp350
Rp351
(I1
(I3
tp352
g329
I00
S'\xf4f\xca'
p353
tp354
bsa(dp355
g321
I5
sg322
g4
(g5
(I0
tp356
g7
tp357
Rp358
(I1
(I3
tp359
g329
I00
S'\xe5h\xc6'
p360
tp361
bsa(dp362
S'name'
p363
I6
sS'lab'
p364
g4
(g5
(I0
tp365
g7
tp366
Rp367
(I1
(I3
tp368
g11
(S'u1'
p369
I0
I1
tp370
Rp371
(I3
S'|'
p372
NNNI-1
I-1
I0
tp373
bI00
S'L\xb8,'
p374
tp375
bsa(dp376
g363
I6
sg364
g4
(g5
(I0
tp377
g7
tp378
Rp379
(I1
(I3
tp380
g371
I00
S'N\xc8\x1c'
p381
tp382
bsa(dp383
g363
I6
sg364
g4
(g5
(I0
tp384
g7
tp385
Rp386
(I1
(I3
tp387
g371
I00
S'-\xaf='
p388
tp389
bsa(dp390
g363
I6
sg364
g4
(g5
(I0
tp391
g7
tp392
Rp393
(I1
(I3
tp394
g371
I00
S's\x9dH'
p395
tp396
bsa(dp397
g363
I6
sg364
g4
(g5
(I0
tp398
g7
tp399
Rp400
(I1
(I3
tp401
g371
I00
S'azd'
p402
tp403
bsa(dp404
S'name'
p405
I7
sS'lab'
p406
g4
(g5
(I0
tp407
g7
tp408
Rp409
(I1
(I3
tp410
g11
(S'u1'
p411
I0
I1
tp412
Rp413
(I3
S'|'
p414
NNNI-1
I-1
I0
tp415
bI00
S'}N\xae'
p416
tp417
bsa(dp418
g405
I7
sg406
g4
(g5
(I0
tp419
g7
tp420
Rp421
(I1
(I3
tp422
g413
I00
S'\xc4=\xa8'
p423
tp424
bsa(dp425
g405
I7
sg406
g4
(g5
(I0
tp426
g7
tp427
Rp428
(I1
(I3
tp429
g413
I00
S'-\xaf='
p430
tp431
bsa(dp432
g405
I7
sg406
g4
(g5
(I0
tp433
g7
tp434
Rp435
(I1
(I3
tp436
g413
I00
S'\xc8P\xa8'
p437
tp438
bsa(dp439
g405
I7
sg406
g4
(g5
(I0
tp440
g7
tp441
Rp442
(I1
(I3
tp443
g413
I00
S'\xaaY\xaf'
p444
tp445
bsa(dp446
S'name'
p447
I8
sS'lab'
p448
g4
(g5
(I0
tp449
g7
tp450
Rp451
(I1
(I3
tp452
g11
(S'u1'
p453
I0
I1
tp454
Rp455
(I3
S'|'
p456
NNNI-1
I-1
I0
tp457
bI00
S'h\xc3N'
p458
tp459
bsa(dp460
g447
I8
sg448
g4
(g5
(I0
tp461
g7
tp462
Rp463
(I1
(I3
tp464
g455
I00
S'K\xbbT'
p465
tp466
bsa(dp467
g447
I8
sg448
g4
(g5
(I0
tp468
g7
tp469
Rp470
(I1
(I3
tp471
g455
I00
S'M\xa8b'
p472
tp473
bsa(dp474
g447
I8
sg448
g4
(g5
(I0
tp475
g7
tp476
Rp477
(I1
(I3
tp478
g455
I00
S'}\xd4A'
p479
tp480
bsa(dp481
g447
I8
sg448
g4
(g5
(I0
tp482
g7
tp483
Rp484
(I1
(I3
tp485
g455
I00
S'I\x87Z'
p486
tp487
bsa(dp488
S'name'
p489
I9
sS'lab'
p490
g4
(g5
(I0
tp491
g7
tp492
Rp493
(I1
(I3
tp494
g11
(S'u1'
p495
I0
I1
tp496
Rp497
(I3
S'|'
p498
NNNI-1
I-1
I0
tp499
bI00
S'y\xcdN'
p500
tp501
bsa(dp502
g489
I9
sg490
g4
(g5
(I0
tp503
g7
tp504
Rp505
(I1
(I3
tp506
g497
I00
S'\xb4\xaac'
p507
tp508
bsa(dp509
g489
I9
sg490
g4
(g5
(I0
tp510
g7
tp511
Rp512
(I1
(I3
tp513
g497
I00
S'\x95\xdfC'
p514
tp515
bsa(dp516
g489
I9
sg490
g4
(g5
(I0
tp517
g7
tp518
Rp519
(I1
(I3
tp520
g497
I00
S'\x95\xd2^'
p521
tp522
bsa(dp523
g489
I9
sg490
g4
(g5
(I0
tp524
g7
tp525
Rp526
(I1
(I3
tp527
g497
I00
S'\x82\xd1b'
p528
tp529
bsa(dp530
S'name'
p531
I10
sS'lab'
p532
g4
(g5
(I0
tp533
g7
tp534
Rp535
(I1
(I3
tp536
g11
(S'u1'
p537
I0
I1
tp538
Rp539
(I3
S'|'
p540
NNNI-1
I-1
I0
tp541
bI00
S't\x88\xb3'
p542
tp543
bsa(dp544
g531
I10
sg532
g4
(g5
(I0
tp545
g7
tp546
Rp547
(I1
(I3
tp548
g539
I00
S'w\x86\xb1'
p549
tp550
bsa(dp551
g531
I10
sg532
g4
(g5
(I0
tp552
g7
tp553
Rp554
(I1
(I3
tp555
g539
I00
S'a\x9a\xa0'
p556
tp557
bsa(dp558
g531
I10
sg532
g4
(g5
(I0
tp559
g7
tp560
Rp561
(I1
(I3
tp562
g539
I00
S'\xbd\x97\xaf'
p563
tp564
bsa(dp565
g531
I10
sg532
g4
(g5
(I0
tp566
g7
tp567
Rp568
(I1
(I3
tp569
g539
I00
S'6\x96\x8b'
p570
tp571
bsa(dp572
S'name'
p573
I11
sS'lab'
p574
g4
(g5
(I0
tp575
g7
tp576
Rp577
(I1
(I3
tp578
g11
(S'u1'
p579
I0
I1
tp580
Rp581
(I3
S'|'
p582
NNNI-1
I-1
I0
tp583
bI00
S'_\x80\x81'
p584
tp585
bsa(dp586
g573
I11
sg574
g4
(g5
(I0
tp587
g7
tp588
Rp589
(I1
(I3
tp590
g581
I00
S'\x8f~\x84'
p591
tp592
bsa(dp593
g573
I11
sg574
g4
(g5
(I0
tp594
g7
tp595
Rp596
(I1
(I3
tp597
g581
I00
S'{\x81\x84'
p598
tp599
bsa(dp600
g573
I11
sg574
g4
(g5
(I0
tp601
g7
tp602
Rp603
(I1
(I3
tp604
g581
I00
S'\xc4\x80\x80'
p605
tp606
bsa(dp607
g573
I11
sg574
g4
(g5
(I0
tp608
g7
tp609
Rp610
(I1
(I3
tp611
g581
I00
S'\xac\x7f\x81'
p612
tp613
bsa(dp614
S'name'
p615
I12
sS'lab'
p616
g4
(g5
(I0
tp617
g7
tp618
Rp619
(I1
(I3
tp620
g11
(S'u1'
p621
I0
I1
tp622
Rp623
(I3
S'|'
p624
NNNI-1
I-1
I0
tp625
bI00
S'\x7fbx'
p626
tp627
bsa(dp628
g615
I12
sg616
g4
(g5
(I0
tp629
g7
tp630
Rp631
(I1
(I3
tp632
g623
I00
S'\x85aw'
p633
tp634
bsa(dp635
g615
I12
sg616
g4
(g5
(I0
tp636
g7
tp637
Rp638
(I1
(I3
tp639
g623
I00
S'{cw'
p640
tp641
bsa(dp642
g615
I12
sg616
g4
(g5
(I0
tp643
g7
tp644
Rp645
(I1
(I3
tp646
g623
I00
S'\x93_v'
p647
tp648
bsa(dp649
g615
I12
sg616
g4
(g5
(I0
tp650
g7
tp651
Rp652
(I1
(I3
tp653
g623
I00
S'dgy'
p654
tp655
bsa(dp656
S'name'
p657
I6
sS'lab'
p658
g4
(g5
(I0
tp659
g7
tp660
Rp661
(I1
(I3
tp662
g11
(S'u1'
p663
I0
I1
tp664
Rp665
(I3
S'|'
p666
NNNI-1
I-1
I0
tp667
bI00
S'\xc9K\x87'
p668
tp669
bsa(dp670
S'name'
p671
I6
sS'lab'
p672
g4
(g5
(I0
tp673
g7
tp674
Rp675
(I1
(I3
tp676
g11
(S'u1'
p677
I0
I1
tp678
Rp679
(I3
S'|'
p680
NNNI-1
I-1
I0
tp681
bI00
S'I\xc8 '
p682
tp683
bsa(dp684
S'name'
p685
I5
sS'lab'
p686
g4
(g5
(I0
tp687
g7
tp688
Rp689
(I1
(I3
tp690
g11
(S'u1'
p691
I0
I1
tp692
Rp693
(I3
S'|'
p694
NNNI-1
I-1
I0
tp695
bI00
S'\xb9n\xc6'
p696
tp697
bsa(dp698
S'name'
p699
I6
sS'lab'
p700
g4
(g5
(I0
tp701
g7
tp702
Rp703
(I1
(I3
tp704
g11
(S'u1'
p705
I0
I1
tp706
Rp707
(I3
S'|'
p708
NNNI-1
I-1
I0
tp709
bI00
S'\x90\x87L'
p710
tp711
bsa(dp712
S'name'
p713
I1
sS'lab'
p714
g4
(g5
(I0
tp715
g7
tp716
Rp717
(I1
(I3
tp718
g11
(S'u1'
p719
I0
I1
tp720
Rp721
(I3
S'|'
p722
NNNI-1
I-1
I0
tp723
bI00
S'\xf4}\x89'
p724
tp725
bsa(dp726
S'name'
p727
I7
sS'lab'
p728
g4
(g5
(I0
tp729
g7
tp730
Rp731
(I1
(I3
tp732
g11
(S'u1'
p733
I0
I1
tp734
Rp735
(I3
S'|'
p736
NNNI-1
I-1
I0
tp737
bI00
S'\xbf:\xc0'
p738
tp739
bsa(dp740
S'name'
p741
I8
sS'lab'
p742
g4
(g5
(I0
tp743
g7
tp744
Rp745
(I1
(I3
tp746
g11
(S'u1'
p747
I0
I1
tp748
Rp749
(I3
S'|'
p750
NNNI-1
I-1
I0
tp751
bI00
S'V\xba>'
p752
tp753
bsa(dp754
S'name'
p755
I10
sS'lab'
p756
g4
(g5
(I0
tp757
g7
tp758
Rp759
(I1
(I3
tp760
g11
(S'u1'
p761
I0
I1
tp762
Rp763
(I3
S'|'
p764
NNNI-1
I-1
I0
tp765
bI00
S'p\x93\xa5'
p766
tp767
bsa(dp768
S'name'
p769
I3
sS'lab'
p770
g4
(g5
(I0
tp771
g7
tp772
Rp773
(I1
(I3
tp774
g11
(S'u1'
p775
I0
I1
tp776
Rp777
(I3
S'|'
p778
NNNI-1
I-1
I0
tp779
bI00
S'_\xbb\x9e'
p780
tp781
bsa(dp782
S'name'
p783
I9
sS'lab'
p784
g4
(g5
(I0
tp785
g7
tp786
Rp787
(I1
(I3
tp788
g11
(S'u1'
p789
I0
I1
tp790
Rp791
(I3
S'|'
p792
NNNI-1
I-1
I0
tp793
bI00
S'\x88\xb4|'
p794
tp795
bsa(dp796
S'name'
p797
I7
sS'lab'
p798
g4
(g5
(I0
tp799
g7
tp800
Rp801
(I1
(I3
tp802
g11
(S'u1'
p803
I0
I1
tp804
Rp805
(I3
S'|'
p806
NNNI-1
I-1
I0
tp807
bI00
S'\xbaT\x8d'
p808
tp809
bsa(dp810
S'name'
p811
I8
sS'lab'
p812
g4
(g5
(I0
tp813
g7
tp814
Rp815
(I1
(I3
tp816
g11
(S'u1'
p817
I0
I1
tp818
Rp819
(I3
S'|'
p820
NNNI-1
I-1
I0
tp821
bI00
S'U\xa9^'
p822
tp823
bsa(dp824
S'name'
p825
I7
sS'lab'
p826
g4
(g5
(I0
tp827
g7
tp828
Rp829
(I1
(I3
tp830
g11
(S'u1'
p831
I0
I1
tp832
Rp833
(I3
S'|'
p834
NNNI-1
I-1
I0
tp835
bI00
S'\xafI\x94'
p836
tp837
bsa(dp838
S'name'
p839
I6
sS'lab'
p840
g4
(g5
(I0
tp841
g7
tp842
Rp843
(I1
(I3
tp844
g11
(S'u1'
p845
I0
I1
tp846
Rp847
(I3
S'|'
p848
NNNI-1
I-1
I0
tp849
bI00
S'6\x92T'
p850
tp851
bsa(dp852
S'name'
p853
I6
sS'lab'
p854
g4
(g5
(I0
tp855
g7
tp856
Rp857
(I1
(I3
tp858
g11
(S'u1'
p859
I0
I1
tp860
Rp861
(I3
S'|'
p862
NNNI-1
I-1
I0
tp863
bI00
S'\xa7hf'
p864
tp865
bsa(dp866
S'name'
p867
I7
sS'lab'
p868
g4
(g5
(I0
tp869
g7
tp870
Rp871
(I1
(I3
tp872
g11
(S'u1'
p873
I0
I1
tp874
Rp875
(I3
S'|'
p876
NNNI-1
I-1
I0
tp877
bI00
S'\xb8D\x9b'
p878
tp879
bsa(dp880
S'name'
p881
I4
sS'lab'
p882
g4
(g5
(I0
tp883
g7
tp884
Rp885
(I1
(I3
tp886
g11
(S'u1'
p887
I0
I1
tp888
Rp889
(I3
S'|'
p890
NNNI-1
I-1
I0
tp891
bI00
S'\x8a\xa8\xb9'
p892
tp893
bsa(dp894
S'name'
p895
I4
sS'lab'
p896
g4
(g5
(I0
tp897
g7
tp898
Rp899
(I1
(I3
tp900
g11
(S'u1'
p901
I0
I1
tp902
Rp903
(I3
S'|'
p904
NNNI-1
I-1
I0
tp905
bI00
S'\xbb\x88\xcb'
p906
tp907
bsa(dp908
S'name'
p909
I9
sS'lab'
p910
g4
(g5
(I0
tp911
g7
tp912
Rp913
(I1
(I3
tp914
g11
(S'u1'
p915
I0
I1
tp916
Rp917
(I3
S'|'
p918
NNNI-1
I-1
I0
tp919
bI00
S'\x8f\xbe\x8f'
p920
tp921
bsa(dp922
S'name'
p923
I9
sS'lab'
p924
g4
(g5
(I0
tp925
g7
tp926
Rp927
(I1
(I3
tp928
g11
(S'u1'
p929
I0
I1
tp930
Rp931
(I3
S'|'
p932
NNNI-1
I-1
I0
tp933
bI00
S'r\xb9r'
p934
tp935
bsa(dp936
S'name'
p937
I7
sS'lab'
p938
g4
(g5
(I0
tp939
g7
tp940
Rp941
(I1
(I3
tp942
g11
(S'u1'
p943
I0
I1
tp944
Rp945
(I3
S'|'
p946
NNNI-1
I-1
I0
tp947
bI00
S'{U\xa2'
p948
tp949
bsa(dp950
S'name'
p951
I7
sS'lab'
p952
g4
(g5
(I0
tp953
g7
tp954
Rp955
(I1
(I3
tp956
g11
(S'u1'
p957
I0
I1
tp958
Rp959
(I3
S'|'
p960
NNNI-1
I-1
I0
tp961
bI00
S'\xc7F\xa5'
p962
tp963
bsa(dp964
S'name'
p965
I11
sS'lab'
p966
g4
(g5
(I0
tp967
g7
tp968
Rp969
(I1
(I3
tp970
g11
(S'u1'
p971
I0
I1
tp972
Rp973
(I3
S'|'
p974
NNNI-1
I-1
I0
tp975
bI00
S'du\x86'
p976
tp977
bsa(dp978
S'name'
p979
I11
sS'lab'
p980
g4
(g5
(I0
tp981
g7
tp982
Rp983
(I1
(I3
tp984
g11
(S'u1'
p985
I0
I1
tp986
Rp987
(I3
S'|'
p988
NNNI-1
I-1
I0
tp989
bI00
S'E\x82y'
p990
tp991
bsa(dp992
S'name'
p993
I8
sS'lab'
p994
g4
(g5
(I0
tp995
g7
tp996
Rp997
(I1
(I3
tp998
g11
(S'u1'
p999
I0
I1
tp1000
Rp1001
(I3
S'|'
p1002
NNNI-1
I-1
I0
tp1003
bI00
S'X\xb5\\'
p1004
tp1005
bsa(dp1006
S'name'
p1007
I10
sS'lab'
p1008
g4
(g5
(I0
tp1009
g7
tp1010
Rp1011
(I1
(I3
tp1012
g11
(S'u1'
p1013
I0
I1
tp1014
Rp1015
(I3
S'|'
p1016
NNNI-1
I-1
I0
tp1017
bI00
S'a\x9d\x98'
p1018
tp1019
bsa(dp1020
S'name'
p1021
I10
sS'lab'
p1022
g4
(g5
(I0
tp1023
g7
tp1024
Rp1025
(I1
(I3
tp1026
g11
(S'u1'
p1027
I0
I1
tp1028
Rp1029
(I3
S'|'
p1030
NNNI-1
I-1
I0
tp1031
bI00
S']\x96\xa7'
p1032
tp1033
bsa(dp1034
S'name'
p1035
I4
sS'lab'
p1036
g4
(g5
(I0
tp1037
g7
tp1038
Rp1039
(I1
(I3
tp1040
g11
(S'u1'
p1041
I0
I1
tp1042
Rp1043
(I3
S'|'
p1044
NNNI-1
I-1
I0
tp1045
bI00
S'\xcc\x91\xa8'
p1046
tp1047
bsa(dp1048
S'name'
p1049
I6
sS'lab'
p1050
g4
(g5
(I0
tp1051
g7
tp1052
Rp1053
(I1
(I3
tp1054
g11
(S'u1'
p1055
I0
I1
tp1056
Rp1057
(I3
S'|'
p1058
NNNI-1
I-1
I0
tp1059
bI00
S'n\xaf:'
p1060
tp1061
bsa(dp1062
S'name'
p1063
I6
sS'lab'
p1064
g4
(g5
(I0
tp1065
g7
tp1066
Rp1067
(I1
(I3
tp1068
g11
(S'u1'
p1069
I0
I1
tp1070
Rp1071
(I3
S'|'
p1072
NNNI-1
I-1
I0
tp1073
bI00
S'\xccud'
p1074
tp1075
bsa(dp1076
S'name'
p1077
I4
sS'lab'
p1078
g4
(g5
(I0
tp1079
g7
tp1080
Rp1081
(I1
(I3
tp1082
g11
(S'u1'
p1083
I0
I1
tp1084
Rp1085
(I3
S'|'
p1086
NNNI-1
I-1
I0
tp1087
bI00
S'\xce\x89\xc1'
p1088
tp1089
bsa(dp1090
S'name'
p1091
I7
sS'lab'
p1092
g4
(g5
(I0
tp1093
g7
tp1094
Rp1095
(I1
(I3
tp1096
g11
(S'u1'
p1097
I0
I1
tp1098
Rp1099
(I3
S'|'
p1100
NNNI-1
I-1
I0
tp1101
bI00
S'\xcaL\xb7'
p1102
tp1103
bsa(dp1104
S'name'
p1105
I6
sS'lab'
p1106
g4
(g5
(I0
tp1107
g7
tp1108
Rp1109
(I1
(I3
tp1110
g11
(S'u1'
p1111
I0
I1
tp1112
Rp1113
(I3
S'|'
p1114
NNNI-1
I-1
I0
tp1115
bI00
S'\xdaN\x87'
p1116
tp1117
bsa(dp1118
S'name'
p1119
I6
sS'lab'
p1120
g4
(g5
(I0
tp1121
g7
tp1122
Rp1123
(I1
(I3
tp1124
g11
(S'u1'
p1125
I0
I1
tp1126
Rp1127
(I3
S'|'
p1128
NNNI-1
I-1
I0
tp1129
bI00
S'O\xc3-'
p1130
tp1131
bsa(dp1132
S'name'
p1133
I6
sS'lab'
p1134
g4
(g5
(I0
tp1135
g7
tp1136
Rp1137
(I1
(I3
tp1138
g11
(S'u1'
p1139
I0
I1
tp1140
Rp1141
(I3
S'|'
p1142
NNNI-1
I-1
I0
tp1143
bI00
S'\xbend'
p1144
tp1145
bsa(dp1146
S'name'
p1147
I11
sS'lab'
p1148
g4
(g5
(I0
tp1149
g7
tp1150
Rp1151
(I1
(I3
tp1152
g11
(S'u1'
p1153
I0
I1
tp1154
Rp1155
(I3
S'|'
p1156
NNNI-1
I-1
I0
tp1157
bI00
S'b}\x81'
p1158
tp1159
bsa(dp1160
S'name'
p1161
I7
sS'lab'
p1162
g4
(g5
(I0
tp1163
g7
tp1164
Rp1165
(I1
(I3
tp1166
g11
(S'u1'
p1167
I0
I1
tp1168
Rp1169
(I3
S'|'
p1170
NNNI-1
I-1
I0
tp1171
bI00
S'\xbcI\x9c'
p1172
tp1173
bsa(dp1174
S'name'
p1175
I8
sS'lab'
p1176
g4
(g5
(I0
tp1177
g7
tp1178
Rp1179
(I1
(I3
tp1180
g11
(S'u1'
p1181
I0
I1
tp1182
Rp1183
(I3
S'|'
p1184
NNNI-1
I-1
I0
tp1185
bI00
S'h\x97|'
p1186
tp1187
bsa(dp1188
S'name'
p1189
I7
sS'lab'
p1190
g4
(g5
(I0
tp1191
g7
tp1192
Rp1193
(I1
(I3
tp1194
g11
(S'u1'
p1195
I0
I1
tp1196
Rp1197
(I3
S'|'
p1198
NNNI-1
I-1
I0
tp1199
bI00
S's^\x8e'
p1200
tp1201
bsa(dp1202
S'name'
p1203
I7
sS'lab'
p1204
g4
(g5
(I0
tp1205
g7
tp1206
Rp1207
(I1
(I3
tp1208
g11
(S'u1'
p1209
I0
I1
tp1210
Rp1211
(I3
S'|'
p1212
NNNI-1
I-1
I0
tp1213
bI00
S'\xd6E\xcf'
p1214
tp1215
bsa(dp1216
S'name'
p1217
I6
sS'lab'
p1218
g4
(g5
(I0
tp1219
g7
tp1220
Rp1221
(I1
(I3
tp1222
g11
(S'u1'
p1223
I0
I1
tp1224
Rp1225
(I3
S'|'
p1226
NNNI-1
I-1
I0
tp1227
bI00
S'Q\xc2.'
p1228
tp1229
bsa(dp1230
S'name'
p1231
I4
sS'lab'
p1232
g4
(g5
(I0
tp1233
g7
tp1234
Rp1235
(I1
(I3
tp1236
g11
(S'u1'
p1237
I0
I1
tp1238
Rp1239
(I3
S'|'
p1240
NNNI-1
I-1
I0
tp1241
bI00
S'\xb7\x8c\xca'
p1242
tp1243
bsa(dp1244
S'name'
p1245
I6
sS'lab'
p1246
g4
(g5
(I0
tp1247
g7
tp1248
Rp1249
(I1
(I3
tp1250
g11
(S'u1'
p1251
I0
I1
tp1252
Rp1253
(I3
S'|'
p1254
NNNI-1
I-1
I0
tp1255
bI00
S'\xe1ho'
p1256
tp1257
bsa(dp1258
S'name'
p1259
I6
sS'lab'
p1260
g4
(g5
(I0
tp1261
g7
tp1262
Rp1263
(I1
(I3
tp1264
g11
(S'u1'
p1265
I0
I1
tp1266
Rp1267
(I3
S'|'
p1268
NNNI-1
I-1
I0
tp1269
bI00
S'\xddUo'
p1270
tp1271
bsa(dp1272
S'name'
p1273
I9
sS'lab'
p1274
g4
(g5
(I0
tp1275
g7
tp1276
Rp1277
(I1
(I3
tp1278
g11
(S'u1'
p1279
I0
I1
tp1280
Rp1281
(I3
S'|'
p1282
NNNI-1
I-1
I0
tp1283
bI00
S'\x8c\xb3W'
p1284
tp1285
bsa(dp1286
S'name'
p1287
I8
sS'lab'
p1288
g4
(g5
(I0
tp1289
g7
tp1290
Rp1291
(I1
(I3
tp1292
g11
(S'u1'
p1293
I0
I1
tp1294
Rp1295
(I3
S'|'
p1296
NNNI-1
I-1
I0
tp1297
bI00
S't\xbc7'
p1298
tp1299
bsa(dp1300
S'name'
p1301
I7
sS'lab'
p1302
g4
(g5
(I0
tp1303
g7
tp1304
Rp1305
(I1
(I3
tp1306
g11
(S'u1'
p1307
I0
I1
tp1308
Rp1309
(I3
S'|'
p1310
NNNI-1
I-1
I0
tp1311
bI00
S'oZ\x92'
p1312
tp1313
bsa(dp1314
S'name'
p1315
I6
sS'lab'
p1316
g4
(g5
(I0
tp1317
g7
tp1318
Rp1319
(I1
(I3
tp1320
g11
(S'u1'
p1321
I0
I1
tp1322
Rp1323
(I3
S'|'
p1324
NNNI-1
I-1
I0
tp1325
bI00
S'J\xc5 '
p1326
tp1327
bsa(dp1328
S'name'
p1329
I6
sS'lab'
p1330
g4
(g5
(I0
tp1331
g7
tp1332
Rp1333
(I1
(I3
tp1334
g11
(S'u1'
p1335
I0
I1
tp1336
Rp1337
(I3
S'|'
p1338
NNNI-1
I-1
I0
tp1339
bI00
S'g\x9aB'
p1340
tp1341
bsa(dp1342
S'name'
p1343
I7
sS'lab'
p1344
g4
(g5
(I0
tp1345
g7
tp1346
Rp1347
(I1
(I3
tp1348
g11
(S'u1'
p1349
I0
I1
tp1350
Rp1351
(I3
S'|'
p1352
NNNI-1
I-1
I0
tp1353
bI00
S'\xccf\xa7'
p1354
tp1355
bsa(dp1356
S'name'
p1357
I3
sS'lab'
p1358
g4
(g5
(I0
tp1359
g7
tp1360
Rp1361
(I1
(I3
tp1362
g11
(S'u1'
p1363
I0
I1
tp1364
Rp1365
(I3
S'|'
p1366
NNNI-1
I-1
I0
tp1367
bI00
S'V\xb7\xa0'
p1368
tp1369
bsa(dp1370
S'name'
p1371
I7
sS'lab'
p1372
g4
(g5
(I0
tp1373
g7
tp1374
Rp1375
(I1
(I3
tp1376
g11
(S'u1'
p1377
I0
I1
tp1378
Rp1379
(I3
S'|'
p1380
NNNI-1
I-1
I0
tp1381
bI00
S'rh\xac'
p1382
tp1383
bsa(dp1384
S'name'
p1385
I6
sS'lab'
p1386
g4
(g5
(I0
tp1387
g7
tp1388
Rp1389
(I1
(I3
tp1390
g11
(S'u1'
p1391
I0
I1
tp1392
Rp1393
(I3
S'|'
p1394
NNNI-1
I-1
I0
tp1395
bI00
S'\xc2fy'
p1396
tp1397
bsa(dp1398
S'name'
p1399
I8
sS'lab'
p1400
g4
(g5
(I0
tp1401
g7
tp1402
Rp1403
(I1
(I3
tp1404
g11
(S'u1'
p1405
I0
I1
tp1406
Rp1407
(I3
S'|'
p1408
NNNI-1
I-1
I0
tp1409
bI00
S'z\xd1<'
p1410
tp1411
bsa(dp1412
S'name'
p1413
I3
sS'lab'
p1414
g4
(g5
(I0
tp1415
g7
tp1416
Rp1417
(I1
(I3
tp1418
g11
(S'u1'
p1419
I0
I1
tp1420
Rp1421
(I3
S'|'
p1422
NNNI-1
I-1
I0
tp1423
bI00
S'4\xa1~'
p1424
tp1425
bsa(dp1426
S'name'
p1427
I8
sS'lab'
p1428
g4
(g5
(I0
tp1429
g7
tp1430
Rp1431
(I1
(I3
tp1432
g11
(S'u1'
p1433
I0
I1
tp1434
Rp1435
(I3
S'|'
p1436
NNNI-1
I-1
I0
tp1437
bI00
S'q\xa2J'
p1438
tp1439
bsa(dp1440
S'name'
p1441
I8
sS'lab'
p1442
g4
(g5
(I0
tp1443
g7
tp1444
Rp1445
(I1
(I3
tp1446
g11
(S'u1'
p1447
I0
I1
tp1448
Rp1449
(I3
S'|'
p1450
NNNI-1
I-1
I0
tp1451
bI00
S'H\xad['
p1452
tp1453
bsa(dp1454
S'name'
p1455
I6
sS'lab'
p1456
g4
(g5
(I0
tp1457
g7
tp1458
Rp1459
(I1
(I3
tp1460
g11
(S'u1'
p1461
I0
I1
tp1462
Rp1463
(I3
S'|'
p1464
NNNI-1
I-1
I0
tp1465
bI00
S'M\xae6'
p1466
tp1467
bsa(dp1468
S'name'
p1469
I6
sS'lab'
p1470
g4
(g5
(I0
tp1471
g7
tp1472
Rp1473
(I1
(I3
tp1474
g11
(S'u1'
p1475
I0
I1
tp1476
Rp1477
(I3
S'|'
p1478
NNNI-1
I-1
I0
tp1479
bI00
S'0\xaaI'
p1480
tp1481
bsa(dp1482
S'name'
p1483
I7
sS'lab'
p1484
g4
(g5
(I0
tp1485
g7
tp1486
Rp1487
(I1
(I3
tp1488
g11
(S'u1'
p1489
I0
I1
tp1490
Rp1491
(I3
S'|'
p1492
NNNI-1
I-1
I0
tp1493
bI00
S'\x95N\xaf'
p1494
tp1495
bsa(dp1496
S'name'
p1497
I9
sS'lab'
p1498
g4
(g5
(I0
tp1499
g7
tp1500
Rp1501
(I1
(I3
tp1502
g11
(S'u1'
p1503
I0
I1
tp1504
Rp1505
(I3
S'|'
p1506
NNNI-1
I-1
I0
tp1507
bI00
S'\xb2\xa3a'
p1508
tp1509
bsa(dp1510
S'name'
p1511
I7
sS'lab'
p1512
g4
(g5
(I0
tp1513
g7
tp1514
Rp1515
(I1
(I3
tp1516
g11
(S'u1'
p1517
I0
I1
tp1518
Rp1519
(I3
S'|'
p1520
NNNI-1
I-1
I0
tp1521
bI00
S'\xd1C\xaf'
p1522
tp1523
bsa(dp1524
S'name'
p1525
I6
sS'lab'
p1526
g4
(g5
(I0
tp1527
g7
tp1528
Rp1529
(I1
(I3
tp1530
g11
(S'u1'
p1531
I0
I1
tp1532
Rp1533
(I3
S'|'
p1534
NNNI-1
I-1
I0
tp1535
bI00
S'\x92\x9cD'
p1536
tp1537
bsa(dp1538
S'name'
p1539
I8
sS'lab'
p1540
g4
(g5
(I0
tp1541
g7
tp1542
Rp1543
(I1
(I3
tp1544
g11
(S'u1'
p1545
I0
I1
tp1546
Rp1547
(I3
S'|'
p1548
NNNI-1
I-1
I0
tp1549
bI00
S'\x93\xadJ'
p1550
tp1551
bsa(dp1552
S'name'
p1553
I7
sS'lab'
p1554
g4
(g5
(I0
tp1555
g7
tp1556
Rp1557
(I1
(I3
tp1558
g11
(S'u1'
p1559
I0
I1
tp1560
Rp1561
(I3
S'|'
p1562
NNNI-1
I-1
I0
tp1563
bI00
S'\xd3=\xce'
p1564
tp1565
bsa(dp1566
S'name'
p1567
I12
sS'lab'
p1568
g4
(g5
(I0
tp1569
g7
tp1570
Rp1571
(I1
(I3
tp1572
g11
(S'u1'
p1573
I0
I1
tp1574
Rp1575
(I3
S'|'
p1576
NNNI-1
I-1
I0
tp1577
bI00
S'\x8bk\x81'
p1578
tp1579
bsa(dp1580
S'name'
p1581
I7
sS'lab'
p1582
g4
(g5
(I0
tp1583
g7
tp1584
Rp1585
(I1
(I3
tp1586
g11
(S'u1'
p1587
I0
I1
tp1588
Rp1589
(I3
S'|'
p1590
NNNI-1
I-1
I0
tp1591
bI00
S'\xadR\x8c'
p1592
tp1593
bsa(dp1594
S'name'
p1595
I8
sS'lab'
p1596
g4
(g5
(I0
tp1597
g7
tp1598
Rp1599
(I1
(I3
tp1600
g11
(S'u1'
p1601
I0
I1
tp1602
Rp1603
(I3
S'|'
p1604
NNNI-1
I-1
I0
tp1605
bI00
S'a\x9eY'
p1606
tp1607
bsa(dp1608
S'name'
p1609
I9
sS'lab'
p1610
g4
(g5
(I0
tp1611
g7
tp1612
Rp1613
(I1
(I3
tp1614
g11
(S'u1'
p1615
I0
I1
tp1616
Rp1617
(I3
S'|'
p1618
NNNI-1
I-1
I0
tp1619
bI00
S'\x7f\xcc\x88'
p1620
tp1621
bsa(dp1622
S'name'
p1623
I7
sS'lab'
p1624
g4
(g5
(I0
tp1625
g7
tp1626
Rp1627
(I1
(I3
tp1628
g11
(S'u1'
p1629
I0
I1
tp1630
Rp1631
(I3
S'|'
p1632
NNNI-1
I-1
I0
tp1633
bI00
S'\xd14\xce'
p1634
tp1635
bsa(dp1636
S'name'
p1637
I3
sS'lab'
p1638
g4
(g5
(I0
tp1639
g7
tp1640
Rp1641
(I1
(I3
tp1642
g11
(S'u1'
p1643
I0
I1
tp1644
Rp1645
(I3
S'|'
p1646
NNNI-1
I-1
I0
tp1647
bI00
S'W\xba\x9f'
p1648
tp1649
bsa(dp1650
S'name'
p1651
I4
sS'lab'
p1652
g4
(g5
(I0
tp1653
g7
tp1654
Rp1655
(I1
(I3
tp1656
g11
(S'u1'
p1657
I0
I1
tp1658
Rp1659
(I3
S'|'
p1660
NNNI-1
I-1
I0
tp1661
bI00
S'\xa5\x92\xc4'
p1662
tp1663
bsa(dp1664
S'name'
p1665
I4
sS'lab'
p1666
g4
(g5
(I0
tp1667
g7
tp1668
Rp1669
(I1
(I3
tp1670
g11
(S'u1'
p1671
I0
I1
tp1672
Rp1673
(I3
S'|'
p1674
NNNI-1
I-1
I0
tp1675
bI00
S'\xa4\x9e\xc3'
p1676
tp1677
bsa(dp1678
S'name'
p1679
I7
sS'lab'
p1680
g4
(g5
(I0
tp1681
g7
tp1682
Rp1683
(I1
(I3
tp1684
g11
(S'u1'
p1685
I0
I1
tp1686
Rp1687
(I3
S'|'
p1688
NNNI-1
I-1
I0
tp1689
bI00
S'\xa9>\xb9'
p1690
tp1691
bsa(dp1692
S'name'
p1693
I5
sS'lab'
p1694
g4
(g5
(I0
tp1695
g7
tp1696
Rp1697
(I1
(I3
tp1698
g11
(S'u1'
p1699
I0
I1
tp1700
Rp1701
(I3
S'|'
p1702
NNNI-1
I-1
I0
tp1703
bI00
S'\xe1\\\xd5'
p1704
tp1705
bsa(dp1706
S'name'
p1707
I6
sS'lab'
p1708
g4
(g5
(I0
tp1709
g7
tp1710
Rp1711
(I1
(I3
tp1712
g11
(S'u1'
p1713
I0
I1
tp1714
Rp1715
(I3
S'|'
p1716
NNNI-1
I-1
I0
tp1717
bI00
S'\x92\x8cI'
p1718
tp1719
bsa(dp1720
S'name'
p1721
I7
sS'lab'
p1722
g4
(g5
(I0
tp1723
g7
tp1724
Rp1725
(I1
(I3
tp1726
g11
(S'u1'
p1727
I0
I1
tp1728
Rp1729
(I3
S'|'
p1730
NNNI-1
I-1
I0
tp1731
bI00
S'\xd3:\xbd'
p1732
tp1733
bsa(dp1734
S'name'
p1735
I2
sS'lab'
p1736
g4
(g5
(I0
tp1737
g7
tp1738
Rp1739
(I1
(I3
tp1740
g11
(S'u1'
p1741
I0
I1
tp1742
Rp1743
(I3
S'|'
p1744
NNNI-1
I-1
I0
tp1745
bI00
S'\x0c\x95v'
p1746
tp1747
bsa(dp1748
S'name'
p1749
I6
sS'lab'
p1750
g4
(g5
(I0
tp1751
g7
tp1752
Rp1753
(I1
(I3
tp1754
g11
(S'u1'
p1755
I0
I1
tp1756
Rp1757
(I3
S'|'
p1758
NNNI-1
I-1
I0
tp1759
bI00
S'\xdaWn'
p1760
tp1761
bsa(dp1762
S'name'
p1763
I7
sS'lab'
p1764
g4
(g5
(I0
tp1765
g7
tp1766
Rp1767
(I1
(I3
tp1768
g11
(S'u1'
p1769
I0
I1
tp1770
Rp1771
(I3
S'|'
p1772
NNNI-1
I-1
I0
tp1773
bI00
S'\xd2F\xce'
p1774
tp1775
bsa(dp1776
S'name'
p1777
I7
sS'lab'
p1778
g4
(g5
(I0
tp1779
g7
tp1780
Rp1781
(I1
(I3
tp1782
g11
(S'u1'
p1783
I0
I1
tp1784
Rp1785
(I3
S'|'
p1786
NNNI-1
I-1
I0
tp1787
bI00
S'\xa2F\xbd'
p1788
tp1789
bsa(dp1790
S'name'
p1791
I9
sS'lab'
p1792
g4
(g5
(I0
tp1793
g7
tp1794
Rp1795
(I1
(I3
tp1796
g11
(S'u1'
p1797
I0
I1
tp1798
Rp1799
(I3
S'|'
p1800
NNNI-1
I-1
I0
tp1801
bI00
S'\x96\xcfK'
p1802
tp1803
bsa(dp1804
S'name'
p1805
I8
sS'lab'
p1806
g4
(g5
(I0
tp1807
g7
tp1808
Rp1809
(I1
(I3
tp1810
g11
(S'u1'
p1811
I0
I1
tp1812
Rp1813
(I3
S'|'
p1814
NNNI-1
I-1
I0
tp1815
bI00
S'r\x8dk'
p1816
tp1817
bsa(dp1818
S'name'
p1819
I8
sS'lab'
p1820
g4
(g5
(I0
tp1821
g7
tp1822
Rp1823
(I1
(I3
tp1824
g11
(S'u1'
p1825
I0
I1
tp1826
Rp1827
(I3
S'|'
p1828
NNNI-1
I-1
I0
tp1829
bI00
S'f\xc0S'
p1830
tp1831
bsa(dp1832
S'name'
p1833
I6
sS'lab'
p1834
g4
(g5
(I0
tp1835
g7
tp1836
Rp1837
(I1
(I3
tp1838
g11
(S'u1'
p1839
I0
I1
tp1840
Rp1841
(I3
S'|'
p1842
NNNI-1
I-1
I0
tp1843
bI00
S'Q\xb87'
p1844
tp1845
bsa(dp1846
S'name'
p1847
I6
sS'lab'
p1848
g4
(g5
(I0
tp1849
g7
tp1850
Rp1851
(I1
(I3
tp1852
g11
(S'u1'
p1853
I0
I1
tp1854
Rp1855
(I3
S'|'
p1856
NNNI-1
I-1
I0
tp1857
bI00
S'}\xa66'
p1858
tp1859
bsa(dp1860
S'name'
p1861
I7
sS'lab'
p1862
g4
(g5
(I0
tp1863
g7
tp1864
Rp1865
(I1
(I3
tp1866
g11
(S'u1'
p1867
I0
I1
tp1868
Rp1869
(I3
S'|'
p1870
NNNI-1
I-1
I0
tp1871
bI00
S'\xc7M\x8b'
p1872
tp1873
bsa(dp1874
S'name'
p1875
I8
sS'lab'
p1876
g4
(g5
(I0
tp1877
g7
tp1878
Rp1879
(I1
(I3
tp1880
g11
(S'u1'
p1881
I0
I1
tp1882
Rp1883
(I3
S'|'
p1884
NNNI-1
I-1
I0
tp1885
bI00
S'\x86\xb1L'
p1886
tp1887
bsa(dp1888
S'name'
p1889
I7
sS'lab'
p1890
g4
(g5
(I0
tp1891
g7
tp1892
Rp1893
(I1
(I3
tp1894
g11
(S'u1'
p1895
I0
I1
tp1896
Rp1897
(I3
S'|'
p1898
NNNI-1
I-1
I0
tp1899
bI00
S'ot\xab'
p1900
tp1901
bsa(dp1902
S'name'
p1903
I7
sS'lab'
p1904
g4
(g5
(I0
tp1905
g7
tp1906
Rp1907
(I1
(I3
tp1908
g11
(S'u1'
p1909
I0
I1
tp1910
Rp1911
(I3
S'|'
p1912
NNNI-1
I-1
I0
tp1913
bI00
S'\xd9A\xbe'
p1914
tp1915
bsa(dp1916
S'name'
p1917
I6
sS'lab'
p1918
g4
(g5
(I0
tp1919
g7
tp1920
Rp1921
(I1
(I3
tp1922
g11
(S'u1'
p1923
I0
I1
tp1924
Rp1925
(I3
S'|'
p1926
NNNI-1
I-1
I0
tp1927
bI00
S'\xc4Tz'
p1928
tp1929
bsa(dp1930
S'name'
p1931
I10
sS'lab'
p1932
g4
(g5
(I0
tp1933
g7
tp1934
Rp1935
(I1
(I3
tp1936
g11
(S'u1'
p1937
I0
I1
tp1938
Rp1939
(I3
S'|'
p1940
NNNI-1
I-1
I0
tp1941
bI00
S'_\x87\x90'
p1942
tp1943
bsa(dp1944
S'name'
p1945
I6
sS'lab'
p1946
g4
(g5
(I0
tp1947
g7
tp1948
Rp1949
(I1
(I3
tp1950
g11
(S'u1'
p1951
I0
I1
tp1952
Rp1953
(I3
S'|'
p1954
NNNI-1
I-1
I0
tp1955
bI00
S'\xd2Sw'
p1956
tp1957
bsa(dp1958
S'name'
p1959
I4
sS'lab'
p1960
g4
(g5
(I0
tp1961
g7
tp1962
Rp1963
(I1
(I3
tp1964
g11
(S'u1'
p1965
I0
I1
tp1966
Rp1967
(I3
S'|'
p1968
NNNI-1
I-1
I0
tp1969
bI00
S'\x9a\xaf\xb3'
p1970
tp1971
bsa(dp1972
S'name'
p1973
I7
sS'lab'
p1974
g4
(g5
(I0
tp1975
g7
tp1976
Rp1977
(I1
(I3
tp1978
g11
(S'u1'
p1979
I0
I1
tp1980
Rp1981
(I3
S'|'
p1982
NNNI-1
I-1
I0
tp1983
bI00
S'\xe5L\xba'
p1984
tp1985
bsa(dp1986
S'name'
p1987
I9
sS'lab'
p1988
g4
(g5
(I0
tp1989
g7
tp1990
Rp1991
(I1
(I3
tp1992
g11
(S'u1'
p1993
I0
I1
tp1994
Rp1995
(I3
S'|'
p1996
NNNI-1
I-1
I0
tp1997
bI00
S'\xb1\xa8z'
p1998
tp1999
bsa(dp2000
S'name'
p2001
I7
sS'lab'
p2002
g4
(g5
(I0
tp2003
g7
tp2004
Rp2005
(I1
(I3
tp2006
g11
(S'u1'
p2007
I0
I1
tp2008
Rp2009
(I3
S'|'
p2010
NNNI-1
I-1
I0
tp2011
bI00
S'\xc1D\xb3'
p2012
tp2013
bsa(dp2014
S'name'
p2015
I6
sS'lab'
p2016
g4
(g5
(I0
tp2017
g7
tp2018
Rp2019
(I1
(I3
tp2020
g11
(S'u1'
p2021
I0
I1
tp2022
Rp2023
(I3
S'|'
p2024
NNNI-1
I-1
I0
tp2025
bI00
S'Y\xce\x1e'
p2026
tp2027
bsa(dp2028
S'name'
p2029
I7
sS'lab'
p2030
g4
(g5
(I0
tp2031
g7
tp2032
Rp2033
(I1
(I3
tp2034
g11
(S'u1'
p2035
I0
I1
tp2036
Rp2037
(I3
S'|'
p2038
NNNI-1
I-1
I0
tp2039
bI00
S'\xa4R\xa4'
p2040
tp2041
bsa(dp2042
S'name'
p2043
I5
sS'lab'
p2044
g4
(g5
(I0
tp2045
g7
tp2046
Rp2047
(I1
(I3
tp2048
g11
(S'u1'
p2049
I0
I1
tp2050
Rp2051
(I3
S'|'
p2052
NNNI-1
I-1
I0
tp2053
bI00
S'\xb8\x7f\xc7'
p2054
tp2055
bsa(dp2056
S'name'
p2057
I4
sS'lab'
p2058
g4
(g5
(I0
tp2059
g7
tp2060
Rp2061
(I1
(I3
tp2062
g11
(S'u1'
p2063
I0
I1
tp2064
Rp2065
(I3
S'|'
p2066
NNNI-1
I-1
I0
tp2067
bI00
S'x\xa9\xb4'
p2068
tp2069
bsa(dp2070
S'name'
p2071
I3
sS'lab'
p2072
g4
(g5
(I0
tp2073
g7
tp2074
Rp2075
(I1
(I3
tp2076
g11
(S'u1'
p2077
I0
I1
tp2078
Rp2079
(I3
S'|'
p2080
NNNI-1
I-1
I0
tp2081
bI00
S'\x81\x9c\x90'
p2082
tp2083
bsa(dp2084
S'name'
p2085
I7
sS'lab'
p2086
g4
(g5
(I0
tp2087
g7
tp2088
Rp2089
(I1
(I3
tp2090
g11
(S'u1'
p2091
I0
I1
tp2092
Rp2093
(I3
S'|'
p2094
NNNI-1
I-1
I0
tp2095
bI00
S'\xc3L\xbd'
p2096
tp2097
bsa(dp2098
S'name'
p2099
I8
sS'lab'
p2100
g4
(g5
(I0
tp2101
g7
tp2102
Rp2103
(I1
(I3
tp2104
g11
(S'u1'
p2105
I0
I1
tp2106
Rp2107
(I3
S'|'
p2108
NNNI-1
I-1
I0
tp2109
bI00
S'\xc2\x8dn'
p2110
tp2111
bsa(dp2112
S'name'
p2113
I4
sS'lab'
p2114
g4
(g5
(I0
tp2115
g7
tp2116
Rp2117
(I1
(I3
tp2118
g11
(S'u1'
p2119
I0
I1
tp2120
Rp2121
(I3
S'|'
p2122
NNNI-1
I-1
I0
tp2123
bI00
S'\xb2\x88\xb0'
p2124
tp2125
bsa(dp2126
S'name'
p2127
I12
sS'lab'
p2128
g4
(g5
(I0
tp2129
g7
tp2130
Rp2131
(I1
(I3
tp2132
g11
(S'u1'
p2133
I0
I1
tp2134
Rp2135
(I3
S'|'
p2136
NNNI-1
I-1
I0
tp2137
bI00
S'qks'
p2138
tp2139
bsa(dp2140
S'name'
p2141
I7
sS'lab'
p2142
g4
(g5
(I0
tp2143
g7
tp2144
Rp2145
(I1
(I3
tp2146
g11
(S'u1'
p2147
I0
I1
tp2148
Rp2149
(I3
S'|'
p2150
NNNI-1
I-1
I0
tp2151
bI00
S'\xe4Z\xb5'
p2152
tp2153
bsa(dp2154
S'name'
p2155
I5
sS'lab'
p2156
g4
(g5
(I0
tp2157
g7
tp2158
Rp2159
(I1
(I3
tp2160
g11
(S'u1'
p2161
I0
I1
tp2162
Rp2163
(I3
S'|'
p2164
NNNI-1
I-1
I0
tp2165
bI00
S'\xe1_\xcf'
p2166
tp2167
bsa(dp2168
S'name'
p2169
I3
sS'lab'
p2170
g4
(g5
(I0
tp2171
g7
tp2172
Rp2173
(I1
(I3
tp2174
g11
(S'u1'
p2175
I0
I1
tp2176
Rp2177
(I3
S'|'
p2178
NNNI-1
I-1
I0
tp2179
bI00
S'Y\xb3\x9e'
p2180
tp2181
bsa(dp2182
S'name'
p2183
I6
sS'lab'
p2184
g4
(g5
(I0
tp2185
g7
tp2186
Rp2187
(I1
(I3
tp2188
g11
(S'u1'
p2189
I0
I1
tp2190
Rp2191
(I3
S'|'
p2192
NNNI-1
I-1
I0
tp2193
bI00
S'\xcfYv'
p2194
tp2195
bsa(dp2196
S'name'
p2197
I3
sS'lab'
p2198
g4
(g5
(I0
tp2199
g7
tp2200
Rp2201
(I1
(I3
tp2202
g11
(S'u1'
p2203
I0
I1
tp2204
Rp2205
(I3
S'|'
p2206
NNNI-1
I-1
I0
tp2207
bI00
S'\x8a\x9b\x82'
p2208
tp2209
bsa(dp2210
S'name'
p2211
I7
sS'lab'
p2212
g4
(g5
(I0
tp2213
g7
tp2214
Rp2215
(I1
(I3
tp2216
g11
(S'u1'
p2217
I0
I1
tp2218
Rp2219
(I3
S'|'
p2220
NNNI-1
I-1
I0
tp2221
bI00
S'|T\x97'
p2222
tp2223
bsa(dp2224
S'name'
p2225
I9
sS'lab'
p2226
g4
(g5
(I0
tp2227
g7
tp2228
Rp2229
(I1
(I3
tp2230
g11
(S'u1'
p2231
I0
I1
tp2232
Rp2233
(I3
S'|'
p2234
NNNI-1
I-1
I0
tp2235
bI00
S'\x81\xa9r'
p2236
tp2237
bsa(dp2238
S'name'
p2239
I6
sS'lab'
p2240
g4
(g5
(I0
tp2241
g7
tp2242
Rp2243
(I1
(I3
tp2244
g11
(S'u1'
p2245
I0
I1
tp2246
Rp2247
(I3
S'|'
p2248
NNNI-1
I-1
I0
tp2249
bI00
S'\xacrV'
p2250
tp2251
bsa(dp2252
S'name'
p2253
I8
sS'lab'
p2254
g4
(g5
(I0
tp2255
g7
tp2256
Rp2257
(I1
(I3
tp2258
g11
(S'u1'
p2259
I0
I1
tp2260
Rp2261
(I3
S'|'
p2262
NNNI-1
I-1
I0
tp2263
bI00
S'P\xadQ'
p2264
tp2265
bsa(dp2266
S'name'
p2267
I7
sS'lab'
p2268
g4
(g5
(I0
tp2269
g7
tp2270
Rp2271
(I1
(I3
tp2272
g11
(S'u1'
p2273
I0
I1
tp2274
Rp2275
(I3
S'|'
p2276
NNNI-1
I-1
I0
tp2277
bI00
S'\xa5H\xb3'
p2278
tp2279
bsa(dp2280
S'name'
p2281
I7
sS'lab'
p2282
g4
(g5
(I0
tp2283
g7
tp2284
Rp2285
(I1
(I3
tp2286
g11
(S'u1'
p2287
I0
I1
tp2288
Rp2289
(I3
S'|'
p2290
NNNI-1
I-1
I0
tp2291
bI00
S'\xd3Q\xcf'
p2292
tp2293
bsa(dp2294
S'name'
p2295
I5
sS'lab'
p2296
g4
(g5
(I0
tp2297
g7
tp2298
Rp2299
(I1
(I3
tp2300
g11
(S'u1'
p2301
I0
I1
tp2302
Rp2303
(I3
S'|'
p2304
NNNI-1
I-1
I0
tp2305
bI00
S'\xe6s\xb0'
p2306
tp2307
bsa(dp2308
S'name'
p2309
I7
sS'lab'
p2310
g4
(g5
(I0
tp2311
g7
tp2312
Rp2313
(I1
(I3
tp2314
g11
(S'u1'
p2315
I0
I1
tp2316
Rp2317
(I3
S'|'
p2318
NNNI-1
I-1
I0
tp2319
bI00
S'\xc4R\xc8'
p2320
tp2321
bsa(dp2322
S'name'
p2323
I8
sS'lab'
p2324
g4
(g5
(I0
tp2325
g7
tp2326
Rp2327
(I1
(I3
tp2328
g11
(S'u1'
p2329
I0
I1
tp2330
Rp2331
(I3
S'|'
p2332
NNNI-1
I-1
I0
tp2333
bI00
S'\x7f\xa3H'
p2334
tp2335
bsa(dp2336
S'name'
p2337
I9
sS'lab'
p2338
g4
(g5
(I0
tp2339
g7
tp2340
Rp2341
(I1
(I3
tp2342
g11
(S'u1'
p2343
I0
I1
tp2344
Rp2345
(I3
S'|'
p2346
NNNI-1
I-1
I0
tp2347
bI00
S'\x9d\xbe{'
p2348
tp2349
bsa(dp2350
S'name'
p2351
I6
sS'lab'
p2352
g4
(g5
(I0
tp2353
g7
tp2354
Rp2355
(I1
(I3
tp2356
g11
(S'u1'
p2357
I0
I1
tp2358
Rp2359
(I3
S'|'
p2360
NNNI-1
I-1
I0
tp2361
bI00
S'F\xb30'
p2362
tp2363
bsa(dp2364
S'name'
p2365
I9
sS'lab'
p2366
g4
(g5
(I0
tp2367
g7
tp2368
Rp2369
(I1
(I3
tp2370
g11
(S'u1'
p2371
I0
I1
tp2372
Rp2373
(I3
S'|'
p2374
NNNI-1
I-1
I0
tp2375
bI00
S'\x89\xcaL'
p2376
tp2377
bsa(dp2378
S'name'
p2379
I9
sS'lab'
p2380
g4
(g5
(I0
tp2381
g7
tp2382
Rp2383
(I1
(I3
tp2384
g11
(S'u1'
p2385
I0
I1
tp2386
Rp2387
(I3
S'|'
p2388
NNNI-1
I-1
I0
tp2389
bI00
S'\xb5\x9b\x82'
p2390
tp2391
bsa(dp2392
S'name'
p2393
I4
sS'lab'
p2394
g4
(g5
(I0
tp2395
g7
tp2396
Rp2397
(I1
(I3
tp2398
g11
(S'u1'
p2399
I0
I1
tp2400
Rp2401
(I3
S'|'
p2402
NNNI-1
I-1
I0
tp2403
bI00
S'k\xa9\xb1'
p2404
tp2405
bsa(dp2406
S'name'
p2407
I9
sS'lab'
p2408
g4
(g5
(I0
tp2409
g7
tp2410
Rp2411
(I1
(I3
tp2412
g11
(S'u1'
p2413
I0
I1
tp2414
Rp2415
(I3
S'|'
p2416
NNNI-1
I-1
I0
tp2417
bI00
S'{\xd1U'
p2418
tp2419
bsa(dp2420
S'name'
p2421
I7
sS'lab'
p2422
g4
(g5
(I0
tp2423
g7
tp2424
Rp2425
(I1
(I3
tp2426
g11
(S'u1'
p2427
I0
I1
tp2428
Rp2429
(I3
S'|'
p2430
NNNI-1
I-1
I0
tp2431
bI00
S'\xaaS\x82'
p2432
tp2433
bsa(dp2434
S'name'
p2435
I7
sS'lab'
p2436
g4
(g5
(I0
tp2437
g7
tp2438
Rp2439
(I1
(I3
tp2440
g11
(S'u1'
p2441
I0
I1
tp2442
Rp2443
(I3
S'|'
p2444
NNNI-1
I-1
I0
tp2445
bI00
S'\xb2r\xb0'
p2446
tp2447
bsa(dp2448
S'name'
p2449
I6
sS'lab'
p2450
g4
(g5
(I0
tp2451
g7
tp2452
Rp2453
(I1
(I3
tp2454
g11
(S'u1'
p2455
I0
I1
tp2456
Rp2457
(I3
S'|'
p2458
NNNI-1
I-1
I0
tp2459
bI00
S'j\x9b;'
p2460
tp2461
bsa(dp2462
S'name'
p2463
I6
sS'lab'
p2464
g4
(g5
(I0
tp2465
g7
tp2466
Rp2467
(I1
(I3
tp2468
g11
(S'u1'
p2469
I0
I1
tp2470
Rp2471
(I3
S'|'
p2472
NNNI-1
I-1
I0
tp2473
bI00
S'\xc3Q~'
p2474
tp2475
bsa(dp2476
S'name'
p2477
I7
sS'lab'
p2478
g4
(g5
(I0
tp2479
g7
tp2480
Rp2481
(I1
(I3
tp2482
g11
(S'u1'
p2483
I0
I1
tp2484
Rp2485
(I3
S'|'
p2486
NNNI-1
I-1
I0
tp2487
bI00
S'\xe0=\xb7'
p2488
tp2489
bsa(dp2490
S'name'
p2491
I7
sS'lab'
p2492
g4
(g5
(I0
tp2493
g7
tp2494
Rp2495
(I1
(I3
tp2496
g11
(S'u1'
p2497
I0
I1
tp2498
Rp2499
(I3
S'|'
p2500
NNNI-1
I-1
I0
tp2501
bI00
S'\xb8f\xbd'
p2502
tp2503
bsa(dp2504
S'name'
p2505
I9
sS'lab'
p2506
g4
(g5
(I0
tp2507
g7
tp2508
Rp2509
(I1
(I3
tp2510
g11
(S'u1'
p2511
I0
I1
tp2512
Rp2513
(I3
S'|'
p2514
NNNI-1
I-1
I0
tp2515
bI00
S'\xa0\xba{'
p2516
tp2517
bsa(dp2518
S'name'
p2519
I7
sS'lab'
p2520
g4
(g5
(I0
tp2521
g7
tp2522
Rp2523
(I1
(I3
tp2524
g11
(S'u1'
p2525
I0
I1
tp2526
Rp2527
(I3
S'|'
p2528
NNNI-1
I-1
I0
tp2529
bI00
S'\x9cN\xb4'
p2530
tp2531
bsa(dp2532
S'name'
p2533
I7
sS'lab'
p2534
g4
(g5
(I0
tp2535
g7
tp2536
Rp2537
(I1
(I3
tp2538
g11
(S'u1'
p2539
I0
I1
tp2540
Rp2541
(I3
S'|'
p2542
NNNI-1
I-1
I0
tp2543
bI00
S'\x9aD\xba'
p2544
tp2545
bsa(dp2546
S'name'
p2547
I9
sS'lab'
p2548
g4
(g5
(I0
tp2549
g7
tp2550
Rp2551
(I1
(I3
tp2552
g11
(S'u1'
p2553
I0
I1
tp2554
Rp2555
(I3
S'|'
p2556
NNNI-1
I-1
I0
tp2557
bI00
S'\x89\xccL'
p2558
tp2559
bsa(dp2560
S'name'
p2561
I6
sS'lab'
p2562
g4
(g5
(I0
tp2563
g7
tp2564
Rp2565
(I1
(I3
tp2566
g11
(S'u1'
p2567
I0
I1
tp2568
Rp2569
(I3
S'|'
p2570
NNNI-1
I-1
I0
tp2571
bI00
S'\xe2l\x83'
p2572
tp2573
bsa(dp2574
S'name'
p2575
I6
sS'lab'
p2576
g4
(g5
(I0
tp2577
g7
tp2578
Rp2579
(I1
(I3
tp2580
g11
(S'u1'
p2581
I0
I1
tp2582
Rp2583
(I3
S'|'
p2584
NNNI-1
I-1
I0
tp2585
bI00
S'K\x84j'
p2586
tp2587
bsa(dp2588
S'name'
p2589
I7
sS'lab'
p2590
g4
(g5
(I0
tp2591
g7
tp2592
Rp2593
(I1
(I3
tp2594
g11
(S'u1'
p2595
I0
I1
tp2596
Rp2597
(I3
S'|'
p2598
NNNI-1
I-1
I0
tp2599
bI00
S'\xaeD\xc2'
p2600
tp2601
bsa(dp2602
S'name'
p2603
I6
sS'lab'
p2604
g4
(g5
(I0
tp2605
g7
tp2606
Rp2607
(I1
(I3
tp2608
g11
(S'u1'
p2609
I0
I1
tp2610
Rp2611
(I3
S'|'
p2612
NNNI-1
I-1
I0
tp2613
bI00
S'\xe5F\x83'
p2614
tp2615
bsa(dp2616
S'name'
p2617
I5
sS'lab'
p2618
g4
(g5
(I0
tp2619
g7
tp2620
Rp2621
(I1
(I3
tp2622
g11
(S'u1'
p2623
I0
I1
tp2624
Rp2625
(I3
S'|'
p2626
NNNI-1
I-1
I0
tp2627
bI00
S'\xe3`\xd7'
p2628
tp2629
bsa(dp2630
S'name'
p2631
I8
sS'lab'
p2632
g4
(g5
(I0
tp2633
g7
tp2634
Rp2635
(I1
(I3
tp2636
g11
(S'u1'
p2637
I0
I1
tp2638
Rp2639
(I3
S'|'
p2640
NNNI-1
I-1
I0
tp2641
bI00
S'\x86\xb9<'
p2642
tp2643
bsa(dp2644
S'name'
p2645
I7
sS'lab'
p2646
g4
(g5
(I0
tp2647
g7
tp2648
Rp2649
(I1
(I3
tp2650
g11
(S'u1'
p2651
I0
I1
tp2652
Rp2653
(I3
S'|'
p2654
NNNI-1
I-1
I0
tp2655
bI00
S'\xa2U\x91'
p2656
tp2657
bsa(dp2658
S'name'
p2659
I3
sS'lab'
p2660
g4
(g5
(I0
tp2661
g7
tp2662
Rp2663
(I1
(I3
tp2664
g11
(S'u1'
p2665
I0
I1
tp2666
Rp2667
(I3
S'|'
p2668
NNNI-1
I-1
I0
tp2669
bI00
S'\x86\xcf\xb1'
p2670
tp2671
bsa(dp2672
S'name'
p2673
I9
sS'lab'
p2674
g4
(g5
(I0
tp2675
g7
tp2676
Rp2677
(I1
(I3
tp2678
g11
(S'u1'
p2679
I0
I1
tp2680
Rp2681
(I3
S'|'
p2682
NNNI-1
I-1
I0
tp2683
bI00
S'\xa8\xa5o'
p2684
tp2685
bsa(dp2686
S'name'
p2687
I8
sS'lab'
p2688
g4
(g5
(I0
tp2689
g7
tp2690
Rp2691
(I1
(I3
tp2692
g11
(S'u1'
p2693
I0
I1
tp2694
Rp2695
(I3
S'|'
p2696
NNNI-1
I-1
I0
tp2697
bI00
S'U\xb7N'
p2698
tp2699
bsa(dp2700
S'name'
p2701
I9
sS'lab'
p2702
g4
(g5
(I0
tp2703
g7
tp2704
Rp2705
(I1
(I3
tp2706
g11
(S'u1'
p2707
I0
I1
tp2708
Rp2709
(I3
S'|'
p2710
NNNI-1
I-1
I0
tp2711
bI00
S'\xce\xa0s'
p2712
tp2713
bsa(dp2714
S'name'
p2715
I9
sS'lab'
p2716
g4
(g5
(I0
tp2717
g7
tp2718
Rp2719
(I1
(I3
tp2720
g11
(S'u1'
p2721
I0
I1
tp2722
Rp2723
(I3
S'|'
p2724
NNNI-1
I-1
I0
tp2725
bI00
S'\x80\xcew'
p2726
tp2727
bsa(dp2728
S'name'
p2729
I6
sS'lab'
p2730
g4
(g5
(I0
tp2731
g7
tp2732
Rp2733
(I1
(I3
tp2734
g11
(S'u1'
p2735
I0
I1
tp2736
Rp2737
(I3
S'|'
p2738
NNNI-1
I-1
I0
tp2739
bI00
S'A\xc1+'
p2740
tp2741
bsa(dp2742
S'name'
p2743
I8
sS'lab'
p2744
g4
(g5
(I0
tp2745
g7
tp2746
Rp2747
(I1
(I3
tp2748
g11
(S'u1'
p2749
I0
I1
tp2750
Rp2751
(I3
S'|'
p2752
NNNI-1
I-1
I0
tp2753
bI00
S'P\xc13'
p2754
tp2755
bsa(dp2756
S'name'
p2757
I8
sS'lab'
p2758
g4
(g5
(I0
tp2759
g7
tp2760
Rp2761
(I1
(I3
tp2762
g11
(S'u1'
p2763
I0
I1
tp2764
Rp2765
(I3
S'|'
p2766
NNNI-1
I-1
I0
tp2767
bI00
S'G\xbbP'
p2768
tp2769
bsa(dp2770
S'name'
p2771
I7
sS'lab'
p2772
g4
(g5
(I0
tp2773
g7
tp2774
Rp2775
(I1
(I3
tp2776
g11
(S'u1'
p2777
I0
I1
tp2778
Rp2779
(I3
S'|'
p2780
NNNI-1
I-1
I0
tp2781
bI00
S'\xcfD\x94'
p2782
tp2783
bsa(dp2784
S'name'
p2785
I11
sS'lab'
p2786
g4
(g5
(I0
tp2787
g7
tp2788
Rp2789
(I1
(I3
tp2790
g11
(S'u1'
p2791
I0
I1
tp2792
Rp2793
(I3
S'|'
p2794
NNNI-1
I-1
I0
tp2795
bI00
S'\xb4\x81n'
p2796
tp2797
bsa(dp2798
S'name'
p2799
I8
sS'lab'
p2800
g4
(g5
(I0
tp2801
g7
tp2802
Rp2803
(I1
(I3
tp2804
g11
(S'u1'
p2805
I0
I1
tp2806
Rp2807
(I3
S'|'
p2808
NNNI-1
I-1
I0
tp2809
bI00
S'y\x96]'
p2810
tp2811
bsa(dp2812
S'name'
p2813
I11
sS'lab'
p2814
g4
(g5
(I0
tp2815
g7
tp2816
Rp2817
(I1
(I3
tp2818
g11
(S'u1'
p2819
I0
I1
tp2820
Rp2821
(I3
S'|'
p2822
NNNI-1
I-1
I0
tp2823
bI00
S'\xcbp{'
p2824
tp2825
bsa(dp2826
S'name'
p2827
I7
sS'lab'
p2828
g4
(g5
(I0
tp2829
g7
tp2830
Rp2831
(I1
(I3
tp2832
g11
(S'u1'
p2833
I0
I1
tp2834
Rp2835
(I3
S'|'
p2836
NNNI-1
I-1
I0
tp2837
bI00
S'\xd0G\x8a'
p2838
tp2839
bsa(dp2840
S'name'
p2841
I12
sS'lab'
p2842
g4
(g5
(I0
tp2843
g7
tp2844
Rp2845
(I1
(I3
tp2846
g11
(S'u1'
p2847
I0
I1
tp2848
Rp2849
(I3
S'|'
p2850
NNNI-1
I-1
I0
tp2851
bI00
S'\x89\\\x80'
p2852
tp2853
bsa(dp2854
S'name'
p2855
I7
sS'lab'
p2856
g4
(g5
(I0
tp2857
g7
tp2858
Rp2859
(I1
(I3
tp2860
g11
(S'u1'
p2861
I0
I1
tp2862
Rp2863
(I3
S'|'
p2864
NNNI-1
I-1
I0
tp2865
bI00
S'\xcaQ\x98'
p2866
tp2867
bsa(dp2868
S'name'
p2869
I5
sS'lab'
p2870
g4
(g5
(I0
tp2871
g7
tp2872
Rp2873
(I1
(I3
tp2874
g11
(S'u1'
p2875
I0
I1
tp2876
Rp2877
(I3
S'|'
p2878
NNNI-1
I-1
I0
tp2879
bI00
S'\xe8o\xcc'
p2880
tp2881
bsa(dp2882
S'name'
p2883
I6
sS'lab'
p2884
g4
(g5
(I0
tp2885
g7
tp2886
Rp2887
(I1
(I3
tp2888
g11
(S'u1'
p2889
I0
I1
tp2890
Rp2891
(I3
S'|'
p2892
NNNI-1
I-1
I0
tp2893
bI00
S'\xdaR|'
p2894
tp2895
bsa(dp2896
S'name'
p2897
I7
sS'lab'
p2898
g4
(g5
(I0
tp2899
g7
tp2900
Rp2901
(I1
(I3
tp2902
g11
(S'u1'
p2903
I0
I1
tp2904
Rp2905
(I3
S'|'
p2906
NNNI-1
I-1
I0
tp2907
bI00
S'y`\x8d'
p2908
tp2909
bsa(dp2910
S'name'
p2911
I3
sS'lab'
p2912
g4
(g5
(I0
tp2913
g7
tp2914
Rp2915
(I1
(I3
tp2916
g11
(S'u1'
p2917
I0
I1
tp2918
Rp2919
(I3
S'|'
p2920
NNNI-1
I-1
I0
tp2921
bI00
S'\\\xbd\x96'
p2922
tp2923
bsa(dp2924
S'name'
p2925
I8
sS'lab'
p2926
g4
(g5
(I0
tp2927
g7
tp2928
Rp2929
(I1
(I3
tp2930
g11
(S'u1'
p2931
I0
I1
tp2932
Rp2933
(I3
S'|'
p2934
NNNI-1
I-1
I0
tp2935
bI00
S'o\xc9\\'
p2936
tp2937
bsa(dp2938
S'name'
p2939
I10
sS'lab'
p2940
g4
(g5
(I0
tp2941
g7
tp2942
Rp2943
(I1
(I3
tp2944
g11
(S'u1'
p2945
I0
I1
tp2946
Rp2947
(I3
S'|'
p2948
NNNI-1
I-1
I0
tp2949
bI00
S'\x94\x89\x8f'
p2950
tp2951
bsa(dp2952
S'name'
p2953
I3
sS'lab'
p2954
g4
(g5
(I0
tp2955
g7
tp2956
Rp2957
(I1
(I3
tp2958
g11
(S'u1'
p2959
I0
I1
tp2960
Rp2961
(I3
S'|'
p2962
NNNI-1
I-1
I0
tp2963
bI00
S'\x80\xc3\x9b'
p2964
tp2965
bsa(dp2966
S'name'
p2967
I9
sS'lab'
p2968
g4
(g5
(I0
tp2969
g7
tp2970
Rp2971
(I1
(I3
tp2972
g11
(S'u1'
p2973
I0
I1
tp2974
Rp2975
(I3
S'|'
p2976
NNNI-1
I-1
I0
tp2977
bI00
S'\x91\xbeU'
p2978
tp2979
bsa(dp2980
S'name'
p2981
I7
sS'lab'
p2982
g4
(g5
(I0
tp2983
g7
tp2984
Rp2985
(I1
(I3
tp2986
g11
(S'u1'
p2987
I0
I1
tp2988
Rp2989
(I3
S'|'
p2990
NNNI-1
I-1
I0
tp2991
bI00
S'K]\xa4'
p2992
tp2993
bsa(dp2994
S'name'
p2995
I7
sS'lab'
p2996
g4
(g5
(I0
tp2997
g7
tp2998
Rp2999
(I1
(I3
tp3000
g11
(S'u1'
p3001
I0
I1
tp3002
Rp3003
(I3
S'|'
p3004
NNNI-1
I-1
I0
tp3005
bI00
S'\x9fG\xa5'
p3006
tp3007
bsa(dp3008
S'name'
p3009
I7
sS'lab'
p3010
g4
(g5
(I0
tp3011
g7
tp3012
Rp3013
(I1
(I3
tp3014
g11
(S'u1'
p3015
I0
I1
tp3016
Rp3017
(I3
S'|'
p3018
NNNI-1
I-1
I0
tp3019
bI00
S'\xc8^\xc8'
p3020
tp3021
bsa(dp3022
S'name'
p3023
I7
sS'lab'
p3024
g4
(g5
(I0
tp3025
g7
tp3026
Rp3027
(I1
(I3
tp3028
g11
(S'u1'
p3029
I0
I1
tp3030
Rp3031
(I3
S'|'
p3032
NNNI-1
I-1
I0
tp3033
bI00
S'\x9bT\x8e'
p3034
tp3035
bsa(dp3036
S'name'
p3037
I7
sS'lab'
p3038
g4
(g5
(I0
tp3039
g7
tp3040
Rp3041
(I1
(I3
tp3042
g11
(S'u1'
p3043
I0
I1
tp3044
Rp3045
(I3
S'|'
p3046
NNNI-1
I-1
I0
tp3047
bI00
S'vt\xb0'
p3048
tp3049
bsa(dp3050
S'name'
p3051
I12
sS'lab'
p3052
g4
(g5
(I0
tp3053
g7
tp3054
Rp3055
(I1
(I3
tp3056
g11
(S'u1'
p3057
I0
I1
tp3058
Rp3059
(I3
S'|'
p3060
NNNI-1
I-1
I0
tp3061
bI00
S'\x93kg'
p3062
tp3063
bsa(dp3064
S'name'
p3065
I7
sS'lab'
p3066
g4
(g5
(I0
tp3067
g7
tp3068
Rp3069
(I1
(I3
tp3070
g11
(S'u1'
p3071
I0
I1
tp3072
Rp3073
(I3
S'|'
p3074
NNNI-1
I-1
I0
tp3075
bI00
S'\xeaT\xb0'
p3076
tp3077
bsa(dp3078
S'name'
p3079
I7
sS'lab'
p3080
g4
(g5
(I0
tp3081
g7
tp3082
Rp3083
(I1
(I3
tp3084
g11
(S'u1'
p3085
I0
I1
tp3086
Rp3087
(I3
S'|'
p3088
NNNI-1
I-1
I0
tp3089
bI00
S'\xc7:\xaf'
p3090
tp3091
bsa(dp3092
S'name'
p3093
I7
sS'lab'
p3094
g4
(g5
(I0
tp3095
g7
tp3096
Rp3097
(I1
(I3
tp3098
g11
(S'u1'
p3099
I0
I1
tp3100
Rp3101
(I3
S'|'
p3102
NNNI-1
I-1
I0
tp3103
bI00
S'nv\x94'
p3104
tp3105
bsa(dp3106
S'name'
p3107
I8
sS'lab'
p3108
g4
(g5
(I0
tp3109
g7
tp3110
Rp3111
(I1
(I3
tp3112
g11
(S'u1'
p3113
I0
I1
tp3114
Rp3115
(I3
S'|'
p3116
NNNI-1
I-1
I0
tp3117
bI00
S'Z\xaaX'
p3118
tp3119
bsa(dp3120
S'name'
p3121
I4
sS'lab'
p3122
g4
(g5
(I0
tp3123
g7
tp3124
Rp3125
(I1
(I3
tp3126
g11
(S'u1'
p3127
I0
I1
tp3128
Rp3129
(I3
S'|'
p3130
NNNI-1
I-1
I0
tp3131
bI00
S'\x9f\xb4\xc5'
p3132
tp3133
bsa(dp3134
S'name'
p3135
I10
sS'lab'
p3136
g4
(g5
(I0
tp3137
g7
tp3138
Rp3139
(I1
(I3
tp3140
g11
(S'u1'
p3141
I0
I1
tp3142
Rp3143
(I3
S'|'
p3144
NNNI-1
I-1
I0
tp3145
bI00
S'X\x99\xac'
p3146
tp3147
bsa(dp3148
S'name'
p3149
I7
sS'lab'
p3150
g4
(g5
(I0
tp3151
g7
tp3152
Rp3153
(I1
(I3
tp3154
g11
(S'u1'
p3155
I0
I1
tp3156
Rp3157
(I3
S'|'
p3158
NNNI-1
I-1
I0
tp3159
bI00
S'\xd7I\x99'
p3160
tp3161
bsa(dp3162
S'name'
p3163
I7
sS'lab'
p3164
g4
(g5
(I0
tp3165
g7
tp3166
Rp3167
(I1
(I3
tp3168
g11
(S'u1'
p3169
I0
I1
tp3170
Rp3171
(I3
S'|'
p3172
NNNI-1
I-1
I0
tp3173
bI00
S'\xaai\x95'
p3174
tp3175
bsa(dp3176
S'name'
p3177
I6
sS'lab'
p3178
g4
(g5
(I0
tp3179
g7
tp3180
Rp3181
(I1
(I3
tp3182
g11
(S'u1'
p3183
I0
I1
tp3184
Rp3185
(I3
S'|'
p3186
NNNI-1
I-1
I0
tp3187
bI00
S'\xbenq'
p3188
tp3189
bsa(dp3190
S'name'
p3191
I8
sS'lab'
p3192
g4
(g5
(I0
tp3193
g7
tp3194
Rp3195
(I1
(I3
tp3196
g11
(S'u1'
p3197
I0
I1
tp3198
Rp3199
(I3
S'|'
p3200
NNNI-1
I-1
I0
tp3201
bI00
S'[\xb2b'
p3202
tp3203
bsa(dp3204
S'name'
p3205
I4
sS'lab'
p3206
g4
(g5
(I0
tp3207
g7
tp3208
Rp3209
(I1
(I3
tp3210
g11
(S'u1'
p3211
I0
I1
tp3212
Rp3213
(I3
S'|'
p3214
NNNI-1
I-1
I0
tp3215
bI00
S'\xc6\x8e\x9c'
p3216
tp3217
bsa(dp3218
S'name'
p3219
I8
sS'lab'
p3220
g4
(g5
(I0
tp3221
g7
tp3222
Rp3223
(I1
(I3
tp3224
g11
(S'u1'
p3225
I0
I1
tp3226
Rp3227
(I3
S'|'
p3228
NNNI-1
I-1
I0
tp3229
bI00
S'g\xbeT'
p3230
tp3231
bsa(dp3232
S'name'
p3233
I3
sS'lab'
p3234
g4
(g5
(I0
tp3235
g7
tp3236
Rp3237
(I1
(I3
tp3238
g11
(S'u1'
p3239
I0
I1
tp3240
Rp3241
(I3
S'|'
p3242
NNNI-1
I-1
I0
tp3243
bI00
S'\x90\xb3\x94'
p3244
tp3245
bsa(dp3246
S'name'
p3247
I6
sS'lab'
p3248
g4
(g5
(I0
tp3249
g7
tp3250
Rp3251
(I1
(I3
tp3252
g11
(S'u1'
p3253
I0
I1
tp3254
Rp3255
(I3
S'|'
p3256
NNNI-1
I-1
I0
tp3257
bI00
S'\xbal~'
p3258
tp3259
bsa(dp3260
S'name'
p3261
I8
sS'lab'
p3262
g4
(g5
(I0
tp3263
g7
tp3264
Rp3265
(I1
(I3
tp3266
g11
(S'u1'
p3267
I0
I1
tp3268
Rp3269
(I3
S'|'
p3270
NNNI-1
I-1
I0
tp3271
bI00
S'\x87\xb1;'
p3272
tp3273
bsa(dp3274
S'name'
p3275
I7
sS'lab'
p3276
g4
(g5
(I0
tp3277
g7
tp3278
Rp3279
(I1
(I3
tp3280
g11
(S'u1'
p3281
I0
I1
tp3282
Rp3283
(I3
S'|'
p3284
NNNI-1
I-1
I0
tp3285
bI00
S'\xd81\xd0'
p3286
tp3287
bsa(dp3288
S'name'
p3289
I6
sS'lab'
p3290
g4
(g5
(I0
tp3291
g7
tp3292
Rp3293
(I1
(I3
tp3294
g11
(S'u1'
p3295
I0
I1
tp3296
Rp3297
(I3
S'|'
p3298
NNNI-1
I-1
I0
tp3299
bI00
S'Q\xa2>'
p3300
tp3301
bsa(dp3302
S'name'
p3303
I7
sS'lab'
p3304
g4
(g5
(I0
tp3305
g7
tp3306
Rp3307
(I1
(I3
tp3308
g11
(S'u1'
p3309
I0
I1
tp3310
Rp3311
(I3
S'|'
p3312
NNNI-1
I-1
I0
tp3313
bI00
S'\x89T\xab'
p3314
tp3315
bsa(dp3316
S'name'
p3317
I6
sS'lab'
p3318
g4
(g5
(I0
tp3319
g7
tp3320
Rp3321
(I1
(I3
tp3322
g11
(S'u1'
p3323
I0
I1
tp3324
Rp3325
(I3
S'|'
p3326
NNNI-1
I-1
I0
tp3327
bI00
S'\xd8Xt'
p3328
tp3329
bsa(dp3330
S'name'
p3331
I3
sS'lab'
p3332
g4
(g5
(I0
tp3333
g7
tp3334
Rp3335
(I1
(I3
tp3336
g11
(S'u1'
p3337
I0
I1
tp3338
Rp3339
(I3
S'|'
p3340
NNNI-1
I-1
I0
tp3341
bI00
S'\x9b\x90z'
p3342
tp3343
bsa(dp3344
S'name'
p3345
I7
sS'lab'
p3346
g4
(g5
(I0
tp3347
g7
tp3348
Rp3349
(I1
(I3
tp3350
g11
(S'u1'
p3351
I0
I1
tp3352
Rp3353
(I3
S'|'
p3354
NNNI-1
I-1
I0
tp3355
bI00
S'\x8bL\xa0'
p3356
tp3357
bsa(dp3358
S'name'
p3359
I6
sS'lab'
p3360
g4
(g5
(I0
tp3361
g7
tp3362
Rp3363
(I1
(I3
tp3364
g11
(S'u1'
p3365
I0
I1
tp3366
Rp3367
(I3
S'|'
p3368
NNNI-1
I-1
I0
tp3369
bI00
S'_\xc3!'
p3370
tp3371
bsa(dp3372
S'name'
p3373
I9
sS'lab'
p3374
g4
(g5
(I0
tp3375
g7
tp3376
Rp3377
(I1
(I3
tp3378
g11
(S'u1'
p3379
I0
I1
tp3380
Rp3381
(I3
S'|'
p3382
NNNI-1
I-1
I0
tp3383
bI00
S'\xbc\x97\x89'
p3384
tp3385
bsa(dp3386
S'name'
p3387
I8
sS'lab'
p3388
g4
(g5
(I0
tp3389
g7
tp3390
Rp3391
(I1
(I3
tp3392
g11
(S'u1'
p3393
I0
I1
tp3394
Rp3395
(I3
S'|'
p3396
NNNI-1
I-1
I0
tp3397
bI00
S'L\xade'
p3398
tp3399
bsa(dp3400
S'name'
p3401
I9
sS'lab'
p3402
g4
(g5
(I0
tp3403
g7
tp3404
Rp3405
(I1
(I3
tp3406
g11
(S'u1'
p3407
I0
I1
tp3408
Rp3409
(I3
S'|'
p3410
NNNI-1
I-1
I0
tp3411
bI00
S'\xa7\xb1\x8e'
p3412
tp3413
bsa(dp3414
S'name'
p3415
I10
sS'lab'
p3416
g4
(g5
(I0
tp3417
g7
tp3418
Rp3419
(I1
(I3
tp3420
g11
(S'u1'
p3421
I0
I1
tp3422
Rp3423
(I3
S'|'
p3424
NNNI-1
I-1
I0
tp3425
bI00
S'#\xa1\x8e'
p3426
tp3427
bsa(dp3428
S'name'
p3429
I7
sS'lab'
p3430
g4
(g5
(I0
tp3431
g7
tp3432
Rp3433
(I1
(I3
tp3434
g11
(S'u1'
p3435
I0
I1
tp3436
Rp3437
(I3
S'|'
p3438
NNNI-1
I-1
I0
tp3439
bI00
S'\xe07\xa8'
p3440
tp3441
bsa(dp3442
S'name'
p3443
I8
sS'lab'
p3444
g4
(g5
(I0
tp3445
g7
tp3446
Rp3447
(I1
(I3
tp3448
g11
(S'u1'
p3449
I0
I1
tp3450
Rp3451
(I3
S'|'
p3452
NNNI-1
I-1
I0
tp3453
bI00
S'b\xc9@'
p3454
tp3455
bsa(dp3456
S'name'
p3457
I7
sS'lab'
p3458
g4
(g5
(I0
tp3459
g7
tp3460
Rp3461
(I1
(I3
tp3462
g11
(S'u1'
p3463
I0
I1
tp3464
Rp3465
(I3
S'|'
p3466
NNNI-1
I-1
I0
tp3467
bI00
S'Zf\x85'
p3468
tp3469
bsa(dp3470
S'name'
p3471
I9
sS'lab'
p3472
g4
(g5
(I0
tp3473
g7
tp3474
Rp3475
(I1
(I3
tp3476
g11
(S'u1'
p3477
I0
I1
tp3478
Rp3479
(I3
S'|'
p3480
NNNI-1
I-1
I0
tp3481
bI00
S'q\xc1v'
p3482
tp3483
bsa(dp3484
S'name'
p3485
I6
sS'lab'
p3486
g4
(g5
(I0
tp3487
g7
tp3488
Rp3489
(I1
(I3
tp3490
g11
(S'u1'
p3491
I0
I1
tp3492
Rp3493
(I3
S'|'
p3494
NNNI-1
I-1
I0
tp3495
bI00
S'\xe1_p'
p3496
tp3497
bsa(dp3498
S'name'
p3499
I8
sS'lab'
p3500
g4
(g5
(I0
tp3501
g7
tp3502
Rp3503
(I1
(I3
tp3504
g11
(S'u1'
p3505
I0
I1
tp3506
Rp3507
(I3
S'|'
p3508
NNNI-1
I-1
I0
tp3509
bI00
S'`\xbbJ'
p3510
tp3511
bsa(dp3512
S'name'
p3513
I7
sS'lab'
p3514
g4
(g5
(I0
tp3515
g7
tp3516
Rp3517
(I1
(I3
tp3518
g11
(S'u1'
p3519
I0
I1
tp3520
Rp3521
(I3
S'|'
p3522
NNNI-1
I-1
I0
tp3523
bI00
S'\xa7F\xa1'
p3524
tp3525
bsa(dp3526
S'name'
p3527
I7
sS'lab'
p3528
g4
(g5
(I0
tp3529
g7
tp3530
Rp3531
(I1
(I3
tp3532
g11
(S'u1'
p3533
I0
I1
tp3534
Rp3535
(I3
S'|'
p3536
NNNI-1
I-1
I0
tp3537
bI00
S'\xc8J\x8c'
p3538
tp3539
bsa(dp3540
S'name'
p3541
I6
sS'lab'
p3542
g4
(g5
(I0
tp3543
g7
tp3544
Rp3545
(I1
(I3
tp3546
g11
(S'u1'
p3547
I0
I1
tp3548
Rp3549
(I3
S'|'
p3550
NNNI-1
I-1
I0
tp3551
bI00
S'\xb4qt'
p3552
tp3553
bsa(dp3554
S'name'
p3555
I7
sS'lab'
p3556
g4
(g5
(I0
tp3557
g7
tp3558
Rp3559
(I1
(I3
tp3560
g11
(S'u1'
p3561
I0
I1
tp3562
Rp3563
(I3
S'|'
p3564
NNNI-1
I-1
I0
tp3565
bI00
S'\x97}\xb9'
p3566
tp3567
bsa(dp3568
S'name'
p3569
I12
sS'lab'
p3570
g4
(g5
(I0
tp3571
g7
tp3572
Rp3573
(I1
(I3
tp3574
g11
(S'u1'
p3575
I0
I1
tp3576
Rp3577
(I3
S'|'
p3578
NNNI-1
I-1
I0
tp3579
bI00
S'\x9a_u'
p3580
tp3581
bsa(dp3582
S'name'
p3583
I6
sS'lab'
p3584
g4
(g5
(I0
tp3585
g7
tp3586
Rp3587
(I1
(I3
tp3588
g11
(S'u1'
p3589
I0
I1
tp3590
Rp3591
(I3
S'|'
p3592
NNNI-1
I-1
I0
tp3593
bI00
S'\x93s`'
p3594
tp3595
bsa(dp3596
S'name'
p3597
I7
sS'lab'
p3598
g4
(g5
(I0
tp3599
g7
tp3600
Rp3601
(I1
(I3
tp3602
g11
(S'u1'
p3603
I0
I1
tp3604
Rp3605
(I3
S'|'
p3606
NNNI-1
I-1
I0
tp3607
bI00
S'\xc77\xba'
p3608
tp3609
bsa(dp3610
S'name'
p3611
I8
sS'lab'
p3612
g4
(g5
(I0
tp3613
g7
tp3614
Rp3615
(I1
(I3
tp3616
g11
(S'u1'
p3617
I0
I1
tp3618
Rp3619
(I3
S'|'
p3620
NNNI-1
I-1
I0
tp3621
bI00
S'r\xba<'
p3622
tp3623
bsa(dp3624
S'name'
p3625
I7
sS'lab'
p3626
g4
(g5
(I0
tp3627
g7
tp3628
Rp3629
(I1
(I3
tp3630
g11
(S'u1'
p3631
I0
I1
tp3632
Rp3633
(I3
S'|'
p3634
NNNI-1
I-1
I0
tp3635
bI00
S'\xc9k\xa2'
p3636
tp3637
bsa(dp3638
S'name'
p3639
I7
sS'lab'
p3640
g4
(g5
(I0
tp3641
g7
tp3642
Rp3643
(I1
(I3
tp3644
g11
(S'u1'
p3645
I0
I1
tp3646
Rp3647
(I3
S'|'
p3648
NNNI-1
I-1
I0
tp3649
bI00
S'\xd1D\xa5'
p3650
tp3651
bsa(dp3652
S'name'
p3653
I9
sS'lab'
p3654
g4
(g5
(I0
tp3655
g7
tp3656
Rp3657
(I1
(I3
tp3658
g11
(S'u1'
p3659
I0
I1
tp3660
Rp3661
(I3
S'|'
p3662
NNNI-1
I-1
I0
tp3663
bI00
S'\x97\xaa['
p3664
tp3665
bsa(dp3666
S'name'
p3667
I8
sS'lab'
p3668
g4
(g5
(I0
tp3669
g7
tp3670
Rp3671
(I1
(I3
tp3672
g11
(S'u1'
p3673
I0
I1
tp3674
Rp3675
(I3
S'|'
p3676
NNNI-1
I-1
I0
tp3677
bI00
S'R\xb1I'
p3678
tp3679
bsa(dp3680
S'name'
p3681
I7
sS'lab'
p3682
g4
(g5
(I0
tp3683
g7
tp3684
Rp3685
(I1
(I3
tp3686
g11
(S'u1'
p3687
I0
I1
tp3688
Rp3689
(I3
S'|'
p3690
NNNI-1
I-1
I0
tp3691
bI00
S'\xd5X\xb7'
p3692
tp3693
bsa(dp3694
S'name'
p3695
I5
sS'lab'
p3696
g4
(g5
(I0
tp3697
g7
tp3698
Rp3699
(I1
(I3
tp3700
g11
(S'u1'
p3701
I0
I1
tp3702
Rp3703
(I3
S'|'
p3704
NNNI-1
I-1
I0
tp3705
bI00
S'\xc2s\xc4'
p3706
tp3707
bsa(dp3708
S'name'
p3709
I4
sS'lab'
p3710
g4
(g5
(I0
tp3711
g7
tp3712
Rp3713
(I1
(I3
tp3714
g11
(S'u1'
p3715
I0
I1
tp3716
Rp3717
(I3
S'|'
p3718
NNNI-1
I-1
I0
tp3719
bI00
S'\x9a\xb8\xa4'
p3720
tp3721
bsa(dp3722
S'name'
p3723
I7
sS'lab'
p3724
g4
(g5
(I0
tp3725
g7
tp3726
Rp3727
(I1
(I3
tp3728
g11
(S'u1'
p3729
I0
I1
tp3730
Rp3731
(I3
S'|'
p3732
NNNI-1
I-1
I0
tp3733
bI00
S'\xcec\xb9'
p3734
tp3735
bsa(dp3736
S'name'
p3737
I9
sS'lab'
p3738
g4
(g5
(I0
tp3739
g7
tp3740
Rp3741
(I1
(I3
tp3742
g11
(S'u1'
p3743
I0
I1
tp3744
Rp3745
(I3
S'|'
p3746
NNNI-1
I-1
I0
tp3747
bI00
S'\x8d\xd8b'
p3748
tp3749
bsa(dp3750
S'name'
p3751
I8
sS'lab'
p3752
g4
(g5
(I0
tp3753
g7
tp3754
Rp3755
(I1
(I3
tp3756
g11
(S'u1'
p3757
I0
I1
tp3758
Rp3759
(I3
S'|'
p3760
NNNI-1
I-1
I0
tp3761
bI00
S'\x99\x95U'
p3762
tp3763
bsa(dp3764
g3751
I8
sg3752
g4
(g5
(I0
tp3765
g7
tp3766
Rp3767
(I1
(I3
tp3768
g3759
I00
S'u\xa9X'
p3769
tp3770
bsa(dp3771
g3751
I7
sg3752
g4
(g5
(I0
tp3772
g7
tp3773
Rp3774
(I1
(I3
tp3775
g3759
I00
S'\xdd9\xab'
p3776
tp3777
bsa(dp3778
g3751
I12
sg3752
g4
(g5
(I0
tp3779
g7
tp3780
Rp3781
(I1
(I3
tp3782
g3759
I00
S'\x84d|'
p3783
tp3784
bsa(dp3785
g3751
I3
sg3752
g4
(g5
(I0
tp3786
g7
tp3787
Rp3788
(I1
(I3
tp3789
g3759
I00
S'x\xbd\x90'
p3790
tp3791
bsa(dp3792
g3751
I8
sg3752
g4
(g5
(I0
tp3793
g7
tp3794
Rp3795
(I1
(I3
tp3796
g3759
I00
S'\xa6\xa5\\'
p3797
tp3798
bsa(dp3799
g3751
I6
sg3752
g4
(g5
(I0
tp3800
g7
tp3801
Rp3802
(I1
(I3
tp3803
g3759
I00
S'd\x9c<'
p3804
tp3805
bsa(dp3806
g3751
I11
sg3752
g4
(g5
(I0
tp3807
g7
tp3808
Rp3809
(I1
(I3
tp3810
g3759
I00
S'6|\x84'
p3811
tp3812
bsa(dp3813
g3751
I7
sg3752
g4
(g5
(I0
tp3814
g7
tp3815
Rp3816
(I1
(I3
tp3817
g3759
I00
S'\xa3E\xbb'
p3818
tp3819
bsa(dp3820
g3751
I8
sg3752
g4
(g5
(I0
tp3821
g7
tp3822
Rp3823
(I1
(I3
tp3824
g3759
I00
S'f\x91w'
p3825
tp3826
bsa(dp3827
g3751
I6
sg3752
g4
(g5
(I0
tp3828
g7
tp3829
Rp3830
(I1
(I3
tp3831
g3759
I00
S'\xb8gl'
p3832
tp3833
bsa(dp3834
g3751
I7
sg3752
g4
(g5
(I0
tp3835
g7
tp3836
Rp3837
(I1
(I3
tp3838
g3759
I00
S'\xbad\xaa'
p3839
tp3840
bsa(dp3841
g3751
I6
sg3752
g4
(g5
(I0
tp3842
g7
tp3843
Rp3844
(I1
(I3
tp3845
g3759
I00
S'-\x8ba'
p3846
tp3847
bsa(dp3848
g3751
I7
sg3752
g4
(g5
(I0
tp3849
g7
tp3850
Rp3851
(I1
(I3
tp3852
g3759
I00
S'\xddN\x96'
p3853
tp3854
bsa(dp3855
g3751
I4
sg3752
g4
(g5
(I0
tp3856
g7
tp3857
Rp3858
(I1
(I3
tp3859
g3759
I00
S'\xb6\x8a\xa2'
p3860
tp3861
bsa(dp3862
S'name'
p3863
I3
sS'lab'
p3864
g4
(g5
(I0
tp3865
g7
tp3866
Rp3867
(I1
(I3
tp3868
g11
(S'u1'
p3869
I0
I1
tp3870
Rp3871
(I3
S'|'
p3872
NNNI-1
I-1
I0
tp3873
bI00
S'o\x9f\x85'
p3874
tp3875
bsa(dp3876
g3863
I5
sg3864
g4
(g5
(I0
tp3877
g7
tp3878
Rp3879
(I1
(I3
tp3880
g3871
I00
S'\x9b\x83\xb7'
p3881
tp3882
bsa(dp3883
g3863
I6
sg3864
g4
(g5
(I0
tp3884
g7
tp3885
Rp3886
(I1
(I3
tp3887
g3871
I00
S'\xc6fq'
p3888
tp3889
bsa(dp3890
g3863
I7
sg3864
g4
(g5
(I0
tp3891
g7
tp3892
Rp3893
(I1
(I3
tp3894
g3871
I00
S'\xceN\xc8'
p3895
tp3896
bsa(dp3897
g3863
I6
sg3864
g4
(g5
(I0
tp3898
g7
tp3899
Rp3900
(I1
(I3
tp3901
g3871
I00
S'\x97mb'
p3902
tp3903
bsa(dp3904
g3863
I7
sg3864
g4
(g5
(I0
tp3905
g7
tp3906
Rp3907
(I1
(I3
tp3908
g3871
I00
S'\xcfH\x89'
p3909
tp3910
bsa(dp3911
g3863
I8
sg3864
g4
(g5
(I0
tp3912
g7
tp3913
Rp3914
(I1
(I3
tp3915
g3871
I00
S'h\x97Y'
p3916
tp3917
bsa(dp3918
g3863
I7
sg3864
g4
(g5
(I0
tp3919
g7
tp3920
Rp3921
(I1
(I3
tp3922
g3871
I00
S'lk\x9e'
p3923
tp3924
bsa(dp3925
g3863
I7
sg3864
g4
(g5
(I0
tp3926
g7
tp3927
Rp3928
(I1
(I3
tp3929
g3871
I00
S'\xe9Q\xce'
p3930
tp3931
bsa(dp3932
g3863
I8
sg3864
g4
(g5
(I0
tp3933
g7
tp3934
Rp3935
(I1
(I3
tp3936
g3871
I00
S'I\xacj'
p3937
tp3938
bsa(dp3939
g3863
I8
sg3864
g4
(g5
(I0
tp3940
g7
tp3941
Rp3942
(I1
(I3
tp3943
g3871
I00
S'3\xafH'
p3944
tp3945
bsa(dp3946
g3863
I4
sg3864
g4
(g5
(I0
tp3947
g7
tp3948
Rp3949
(I1
(I3
tp3950
g3871
I00
S'\xad\x98\x99'
p3951
tp3952
bsa(dp3953
g3863
I11
sg3864
g4
(g5
(I0
tp3954
g7
tp3955
Rp3956
(I1
(I3
tp3957
g3871
I00
S'\x81z\x8a'
p3958
tp3959
bsa(dp3960
g3863
I8
sg3864
g4
(g5
(I0
tp3961
g7
tp3962
Rp3963
(I1
(I3
tp3964
g3871
I00
S'\xa8\xa6W'
p3965
tp3966
bsa(dp3967
g3863
I6
sg3864
g4
(g5
(I0
tp3968
g7
tp3969
Rp3970
(I1
(I3
tp3971
g3871
I00
S'9\xba0'
p3972
tp3973
bsa(dp3974
g3863
I7
sg3864
g4
(g5
(I0
tp3975
g7
tp3976
Rp3977
(I1
(I3
tp3978
g3871
I00
S'\x85Q\x9f'
p3979
tp3980
bsa(dp3981
g3863
I7
sg3864
g4
(g5
(I0
tp3982
g7
tp3983
Rp3984
(I1
(I3
tp3985
g3871
I00
S'\xd9-\xcf'
p3986
tp3987
bsa(dp3988
g3863
I12
sg3864
g4
(g5
(I0
tp3989
g7
tp3990
Rp3991
(I1
(I3
tp3992
g3871
I00
S'\xacf~'
p3993
tp3994
bsa(dp3995
g3863
I9
sg3864
g4
(g5
(I0
tp3996
g7
tp3997
Rp3998
(I1
(I3
tp3999
g3871
I00
S'\x90\xa7\\'
p4000
tp4001
bsa(dp4002
g3863
I8
sg3864
g4
(g5
(I0
tp4003
g7
tp4004
Rp4005
(I1
(I3
tp4006
g3871
I00
S'S\xbe7'
p4007
tp4008
bsa(dp4009
g3863
I3
sg3864
g4
(g5
(I0
tp4010
g7
tp4011
Rp4012
(I1
(I3
tp4013
g3871
I00
S'\x87\xa8\x91'
p4014
tp4015
bsa(dp4016
g3863
I9
sg3864
g4
(g5
(I0
tp4017
g7
tp4018
Rp4019
(I1
(I3
tp4020
g3871
I00
S'\x91\xcf\x83'
p4021
tp4022
bsa(dp4023
g3863
I9
sg3864
g4
(g5
(I0
tp4024
g7
tp4025
Rp4026
(I1
(I3
tp4027
g3871
I00
S'z\xb4\x84'
p4028
tp4029
bsa(dp4030
g3863
I8
sg3864
g4
(g5
(I0
tp4031
g7
tp4032
Rp4033
(I1
(I3
tp4034
g3871
I00
S'\x90\xcaB'
p4035
tp4036
bsa(dp4037
g3863
I6
sg3864
g4
(g5
(I0
tp4038
g7
tp4039
Rp4040
(I1
(I3
tp4041
g3871
I00
S'\xc3jb'
p4042
tp4043
bsa(dp4044
g3863
I6
sg3864
g4
(g5
(I0
tp4045
g7
tp4046
Rp4047
(I1
(I3
tp4048
g3871
I00
S'\x1b\x9dY'
p4049
tp4050
bsa(dp4051
g3863
I12
sg3864
g4
(g5
(I0
tp4052
g7
tp4053
Rp4054
(I1
(I3
tp4055
g3871
I00
S'iwt'
p4056
tp4057
bsa(dp4058
g3863
I10
sg3864
g4
(g5
(I0
tp4059
g7
tp4060
Rp4061
(I1
(I3
tp4062
g3871
I00
S'm\x84\xa5'
p4063
tp4064
bsa(dp4065
g3863
I6
sg3864
g4
(g5
(I0
tp4066
g7
tp4067
Rp4068
(I1
(I3
tp4069
g3871
I00
S'\x95po'
p4070
tp4071
bsa(dp4072
g3863
I8
sg3864
g4
(g5
(I0
tp4073
g7
tp4074
Rp4075
(I1
(I3
tp4076
g3871
I00
S'\x82\x98i'
p4077
tp4078
bsa(dp4079
g3863
I7
sg3864
g4
(g5
(I0
tp4080
g7
tp4081
Rp4082
(I1
(I3
tp4083
g3871
I00
S'\x96T\xb1'
p4084
tp4085
bsa(dp4086
g3863
I7
sg3864
g4
(g5
(I0
tp4087
g7
tp4088
Rp4089
(I1
(I3
tp4090
g3871
I00
S'\xdaC\xaa'
p4091
tp4092
bsa(dp4093
g3863
I7
sg3864
g4
(g5
(I0
tp4094
g7
tp4095
Rp4096
(I1
(I3
tp4097
g3871
I00
S'\xbar\xa4'
p4098
tp4099
bsa(dp4100
g3863
I8
sg3864
g4
(g5
(I0
tp4101
g7
tp4102
Rp4103
(I1
(I3
tp4104
g3871
I00
S'r\xb5['
p4105
tp4106
bsa(dp4107
g3863
I9
sg3864
g4
(g5
(I0
tp4108
g7
tp4109
Rp4110
(I1
(I3
tp4111
g3871
I00
S'\x82\xd0m'
p4112
tp4113
bsa(dp4114
g3863
I7
sg3864
g4
(g5
(I0
tp4115
g7
tp4116
Rp4117
(I1
(I3
tp4118
g3871
I00
S'\xf3i\x8a'
p4119
tp4120
bsa(dp4121
g3863
I7
sg3864
g4
(g5
(I0
tp4122
g7
tp4123
Rp4124
(I1
(I3
tp4125
g3871
I00
S'gZ\x95'
p4126
tp4127
bsa(dp4128
g3863
I8
sg3864
g4
(g5
(I0
tp4129
g7
tp4130
Rp4131
(I1
(I3
tp4132
g3871
I00
S'J\xbcE'
p4133
tp4134
bsa(dp4135
g3863
I8
sg3864
g4
(g5
(I0
tp4136
g7
tp4137
Rp4138
(I1
(I3
tp4139
g3871
I00
S'X\xbfc'
p4140
tp4141
bsa(dp4142
S'name'
p4143
I4
sS'lab'
p4144
g4
(g5
(I0
tp4145
g7
tp4146
Rp4147
(I1
(I3
tp4148
g11
(S'u1'
p4149
I0
I1
tp4150
Rp4151
(I3
S'|'
p4152
NNNI-1
I-1
I0
tp4153
bI00
S'\xa2\xab\xb4'
p4154
tp4155
bsa(dp4156
g4143
I9
sg4144
g4
(g5
(I0
tp4157
g7
tp4158
Rp4159
(I1
(I3
tp4160
g4151
I00
S'\x8b\xc4u'
p4161
tp4162
bsa(dp4163
g4143
I6
sg4144
g4
(g5
(I0
tp4164
g7
tp4165
Rp4166
(I1
(I3
tp4167
g4151
I00
S'=\x96U'
p4168
tp4169
bsa(dp4170
g4143
I10
sg4144
g4
(g5
(I0
tp4171
g7
tp4172
Rp4173
(I1
(I3
tp4174
g4151
I00
S'\x86\x89\x9c'
p4175
tp4176
bsa(dp4177
g4143
I5
sg4144
g4
(g5
(I0
tp4178
g7
tp4179
Rp4180
(I1
(I3
tp4181
g4151
I00
S'\xd2\x82\xd3'
p4182
tp4183
bsa(dp4184
g4143
I10
sg4144
g4
(g5
(I0
tp4185
g7
tp4186
Rp4187
(I1
(I3
tp4188
g4151
I00
S'\x84\x8e\xb4'
p4189
tp4190
bsa(dp4191
g4143
I7
sg4144
g4
(g5
(I0
tp4192
g7
tp4193
Rp4194
(I1
(I3
tp4195
g4151
I00
S'\xcdh\xbb'
p4196
tp4197
bsa(dp4198
g4143
I8
sg4144
g4
(g5
(I0
tp4199
g7
tp4200
Rp4201
(I1
(I3
tp4202
g4151
I00
S'@\xb0o'
p4203
tp4204
bsa(dp4205
g4143
I6
sg4144
g4
(g5
(I0
tp4206
g7
tp4207
Rp4208
(I1
(I3
tp4209
g4151
I00
S'\xbfh^'
p4210
tp4211
bsa(dp4212
g4143
I6
sg4144
g4
(g5
(I0
tp4213
g7
tp4214
Rp4215
(I1
(I3
tp4216
g4151
I00
S'\xbdzZ'
p4217
tp4218
bsa(dp4219
g4143
I12
sg4144
g4
(g5
(I0
tp4220
g7
tp4221
Rp4222
(I1
(I3
tp4223
g4151
I00
S'\x89fp'
p4224
tp4225
bsa(dp4226
g4143
I7
sg4144
g4
(g5
(I0
tp4227
g7
tp4228
Rp4229
(I1
(I3
tp4230
g4151
I00
S'\x9do\xbe'
p4231
tp4232
bsa(dp4233
g4143
I7
sg4144
g4
(g5
(I0
tp4234
g7
tp4235
Rp4236
(I1
(I3
tp4237
g4151
I00
S'\xb7?\xc6'
p4238
tp4239
bsa(dp4240
g4143
I9
sg4144
g4
(g5
(I0
tp4241
g7
tp4242
Rp4243
(I1
(I3
tp4244
g4151
I00
S'\xa9\xa8]'
p4245
tp4246
bsa(dp4247
g4143
I5
sg4144
g4
(g5
(I0
tp4248
g7
tp4249
Rp4250
(I1
(I3
tp4251
g4151
I00
S'\xd8\x82\xb5'
p4252
tp4253
bsa(dp4254
g4143
I7
sg4144
g4
(g5
(I0
tp4255
g7
tp4256
Rp4257
(I1
(I3
tp4258
g4151
I00
S'\xd4`\xca'
p4259
tp4260
bsa(dp4261
g4143
I10
sg4144
g4
(g5
(I0
tp4262
g7
tp4263
Rp4264
(I1
(I3
tp4265
g4151
I00
S'\x91}\xbe'
p4266
tp4267
bsa(dp4268
g4143
I4
sg4144
g4
(g5
(I0
tp4269
g7
tp4270
Rp4271
(I1
(I3
tp4272
g4151
I00
S'\xba\x8f\xcd'
p4273
tp4274
bsa(dp4275
S'name'
p4276
I6
sS'lab'
p4277
g4
(g5
(I0
tp4278
g7
tp4279
Rp4280
(I1
(I3
tp4281
g11
(S'u1'
p4282
I0
I1
tp4283
Rp4284
(I3
S'|'
p4285
NNNI-1
I-1
I0
tp4286
bI00
S'l\xaa.'
p4287
tp4288
bsa(dp4289
g4276
I7
sg4277
g4
(g5
(I0
tp4290
g7
tp4291
Rp4292
(I1
(I3
tp4293
g4284
I00
S'\xa7t\x9c'
p4294
tp4295
bsa(dp4296
g4276
I7
sg4277
g4
(g5
(I0
tp4297
g7
tp4298
Rp4299
(I1
(I3
tp4300
g4284
I00
S'\x8bi\x8a'
p4301
tp4302
bsa(dp4303
g4276
I8
sg4277
g4
(g5
(I0
tp4304
g7
tp4305
Rp4306
(I1
(I3
tp4307
g4284
I00
S'\x91\x95m'
p4308
tp4309
bsa(dp4310
S'name'
p4311
I6
sS'lab'
p4312
g4
(g5
(I0
tp4313
g7
tp4314
Rp4315
(I1
(I3
tp4316
g11
(S'u1'
p4317
I0
I1
tp4318
Rp4319
(I3
S'|'
p4320
NNNI-1
I-1
I0
tp4321
bI00
S'\xd2Wt'
p4322
tp4323
bsa(dp4324
g4311
I7
sg4312
g4
(g5
(I0
tp4325
g7
tp4326
Rp4327
(I1
(I3
tp4328
g4319
I00
S'\xd2?\x9a'
p4329
tp4330
bsa(dp4331
g4311
I9
sg4312
g4
(g5
(I0
tp4332
g7
tp4333
Rp4334
(I1
(I3
tp4335
g4319
I00
S'\xbe\xa7s'
p4336
tp4337
bsa(dp4338
S'name'
p4339
I7
sS'lab'
p4340
g4
(g5
(I0
tp4341
g7
tp4342
Rp4343
(I1
(I3
tp4344
g11
(S'u1'
p4345
I0
I1
tp4346
Rp4347
(I3
S'|'
p4348
NNNI-1
I-1
I0
tp4349
bI00
S'\xc6Q\xa6'
p4350
tp4351
bsa(dp4352
g4339
I9
sg4340
g4
(g5
(I0
tp4353
g7
tp4354
Rp4355
(I1
(I3
tp4356
g4347
I00
S'w\xbei'
p4357
tp4358
bsa(dp4359
g4339
I7
sg4340
g4
(g5
(I0
tp4360
g7
tp4361
Rp4362
(I1
(I3
tp4363
g4347
I00
S'\x7fO\xa9'
p4364
tp4365
bsa(dp4366
g4339
I6
sg4340
g4
(g5
(I0
tp4367
g7
tp4368
Rp4369
(I1
(I3
tp4370
g4347
I00
S'C\xb2<'
p4371
tp4372
bsa(dp4373
g4339
I6
sg4340
g4
(g5
(I0
tp4374
g7
tp4375
Rp4376
(I1
(I3
tp4377
g4347
I00
S'\xd2]l'
p4378
tp4379
bsa(dp4380
g4339
I5
sg4340
g4
(g5
(I0
tp4381
g7
tp4382
Rp4383
(I1
(I3
tp4384
g4347
I00
S'\xd1\x85\xcb'
p4385
tp4386
bsa(dp4387
g4339
I10
sg4340
g4
(g5
(I0
tp4388
g7
tp4389
Rp4390
(I1
(I3
tp4391
g4347
I00
S'd\x87\x86'
p4392
tp4393
bsa(dp4394
g4339
I7
sg4340
g4
(g5
(I0
tp4395
g7
tp4396
Rp4397
(I1
(I3
tp4398
g4347
I00
S'\xaeY\xa8'
p4399
tp4400
bsa(dp4401
g4339
I6
sg4340
g4
(g5
(I0
tp4402
g7
tp4403
Rp4404
(I1
(I3
tp4405
g4347
I00
S'\xc9_p'
p4406
tp4407
bsa(dp4408
g4339
I12
sg4340
g4
(g5
(I0
tp4409
g7
tp4410
Rp4411
(I1
(I3
tp4412
g4347
I00
S'\x86oy'
p4413
tp4414
bsa(dp4415
g4339
I6
sg4340
g4
(g5
(I0
tp4416
g7
tp4417
Rp4418
(I1
(I3
tp4419
g4347
I00
S'\xd1\\}'
p4420
tp4421
bsa(dp4422
g4339
I12
sg4340
g4
(g5
(I0
tp4423
g7
tp4424
Rp4425
(I1
(I3
tp4426
g4347
I00
S'|m\x80'
p4427
tp4428
bsa(dp4429
g4339
I12
sg4340
g4
(g5
(I0
tp4430
g7
tp4431
Rp4432
(I1
(I3
tp4433
g4347
I00
S'njt'
p4434
tp4435
bsa(dp4436
g4339
I7
sg4340
g4
(g5
(I0
tp4437
g7
tp4438
Rp4439
(I1
(I3
tp4440
g4347
I00
S'\xdeC\x98'
p4441
tp4442
bsa(dp4443
g4339
I8
sg4340
g4
(g5
(I0
tp4444
g7
tp4445
Rp4446
(I1
(I3
tp4447
g4347
I00
S'C\xa1['
p4448
tp4449
bsa(dp4450
g4339
I3
sg4340
g4
(g5
(I0
tp4451
g7
tp4452
Rp4453
(I1
(I3
tp4454
g4347
I00
S'p\xb8\x91'
p4455
tp4456
bsa(dp4457
g4339
I7
sg4340
g4
(g5
(I0
tp4458
g7
tp4459
Rp4460
(I1
(I3
tp4461
g4347
I00
S'\xd4i\xa3'
p4462
tp4463
bsa(dp4464
g4339
I6
sg4340
g4
(g5
(I0
tp4465
g7
tp4466
Rp4467
(I1
(I3
tp4468
g4347
I00
S'\x90ud'
p4469
tp4470
bsa(dp4471
g4339
I8
sg4340
g4
(g5
(I0
tp4472
g7
tp4473
Rp4474
(I1
(I3
tp4475
g4347
I00
S'e\xc4&'
p4476
tp4477
bsa(dp4478
g4339
I8
sg4340
g4
(g5
(I0
tp4479
g7
tp4480
Rp4481
(I1
(I3
tp4482
g4347
I00
S'5\xb2L'
p4483
tp4484
bsa(dp4485
g4339
I9
sg4340
g4
(g5
(I0
tp4486
g7
tp4487
Rp4488
(I1
(I3
tp4489
g4347
I00
S'\xa0\xc8W'
p4490
tp4491
bsa(dp4492
g4339
I7
sg4340
g4
(g5
(I0
tp4493
g7
tp4494
Rp4495
(I1
(I3
tp4496
g4347
I00
S'\xb7B\xaf'
p4497
tp4498
bsa(dp4499
g4339
I6
sg4340
g4
(g5
(I0
tp4500
g7
tp4501
Rp4502
(I1
(I3
tp4503
g4347
I00
S'Z\xc7\x1c'
p4504
tp4505
bsa(dp4506
g4339
I6
sg4340
g4
(g5
(I0
tp4507
g7
tp4508
Rp4509
(I1
(I3
tp4510
g4347
I00
S'\xae\x85U'
p4511
tp4512
bsa(dp4513
g4339
I4
sg4340
g4
(g5
(I0
tp4514
g7
tp4515
Rp4516
(I1
(I3
tp4517
g4347
I00
S'\x80\xb5\xb0'
p4518
tp4519
bsa(dp4520
g4339
I7
sg4340
g4
(g5
(I0
tp4521
g7
tp4522
Rp4523
(I1
(I3
tp4524
g4347
I00
S'\xee_\x99'
p4525
tp4526
bsa(dp4527
g4339
I7
sg4340
g4
(g5
(I0
tp4528
g7
tp4529
Rp4530
(I1
(I3
tp4531
g4347
I00
S'\xc8M\x85'
p4532
tp4533
bsa(dp4534
g4339
I6
sg4340
g4
(g5
(I0
tp4535
g7
tp4536
Rp4537
(I1
(I3
tp4538
g4347
I00
S'\xd8\\i'
p4539
tp4540
bsa(dp4541
g4339
I7
sg4340
g4
(g5
(I0
tp4542
g7
tp4543
Rp4544
(I1
(I3
tp4545
g4347
I00
S'\x9aN\xb9'
p4546
tp4547
bsa.